	.file	"v_aslib.c"
	.text
	.p2align 4,,15
	.type	asl_loc_stmt_assign_to_accum_1w_id, @function
asl_loc_stmt_assign_to_accum_1w_id:
.LFB262:
	.cfi_startproc
	pushl	%ebp
	.cfi_def_cfa_offset 8
	.cfi_offset 5, -8
	pushl	%edi
	.cfi_def_cfa_offset 12
	.cfi_offset 7, -12
	pushl	%esi
	.cfi_def_cfa_offset 16
	.cfi_offset 6, -16
	pushl	%ebx
	.cfi_def_cfa_offset 20
	.cfi_offset 3, -20
	call	__x86.get_pc_thunk.bp
	addl	$_GLOBAL_OFFSET_TABLE_, %ebp
	subl	$4, %esp
	.cfi_def_cfa_offset 24
	movl	(%edx), %esi
	movl	132(%eax), %edi
	movl	%ecx, (%esp)
	movl	12(%edx), %ecx
	testl	%esi, %esi
	leal	0(,%edi,4), %ebx
	movl	(%ecx,%edi,4), %ecx
	jne	.L2
	movl	16(%edx), %esi
	addl	36(%edx), %ebx
	testl	%ecx, %ecx
	movl	(%esi,%edi,4), %esi
	je	.L3
.L4:
	movl	(%ebx), %edx
	testl	%edx, %edx
	je	.L11
.L7:
	movl	(%esp), %edi
	movl	(%esi), %edx
	movl	24(%esp), %ecx
	orl	4(%esi), %ecx
	xorl	%edi, %edx
	orl	%edx, %ecx
	movl	%ecx, 4(%esi)
	orl	%edi, %ecx
	movl	%ecx, (%esi)
.L8:
	orb	$4, 6(%eax)
	movl	$1, (%ebx)
	addl	$4, %esp
	.cfi_remember_state
	.cfi_def_cfa_offset 20
	popl	%ebx
	.cfi_restore 3
	.cfi_def_cfa_offset 16
	popl	%esi
	.cfi_restore 6
	.cfi_def_cfa_offset 12
	popl	%edi
	.cfi_restore 7
	.cfi_def_cfa_offset 8
	popl	%ebp
	.cfi_restore 5
	.cfi_def_cfa_offset 4
	ret
	.p2align 4,,10
	.p2align 3
.L2:
	.cfi_restore_state
	movl	20(%edx), %esi
	addl	40(%edx), %ebx
	testl	%ecx, %ecx
	movl	(%esi,%edi,4), %esi
	jne	.L4
	movl	32(%edx), %ecx
	movl	(%ecx,%edi,4), %ecx
.L6:
	movl	24(%edx), %edx
	movl	__masktab@GOT(%ebp), %ebp
	movl	(%edx,%edi,4), %edi
	movl	8(%eax), %edx
	andl	$31, %edx
	movl	0(%ebp,%edx,4), %edx
	andl	%edx, (%edi)
	andl	%edx, (%ecx)
	movl	(%ebx), %edx
	testl	%edx, %edx
	jne	.L7
.L11:
	movl	(%esp), %edi
	movl	%edi, (%esi)
	movl	24(%esp), %edi
	movl	%edi, 4(%esi)
	jmp	.L8
	.p2align 4,,10
	.p2align 3
.L3:
	movl	28(%edx), %ecx
	movl	(%ecx,%edi,4), %ecx
	jmp	.L6
	.cfi_endproc
.LFE262:
	.size	asl_loc_stmt_assign_to_accum_1w_id, .-asl_loc_stmt_assign_to_accum_1w_id
	.p2align 4,,15
	.type	asl_loc_combine_xprop_accum, @function
asl_loc_combine_xprop_accum:
.LFB272:
	.cfi_startproc
	pushl	%ebp
	.cfi_def_cfa_offset 8
	.cfi_offset 5, -8
	pushl	%edi
	.cfi_def_cfa_offset 12
	.cfi_offset 7, -12
	pushl	%esi
	.cfi_def_cfa_offset 16
	.cfi_offset 6, -16
	pushl	%ebx
	.cfi_def_cfa_offset 20
	.cfi_offset 3, -20
	call	__x86.get_pc_thunk.si
	addl	$_GLOBAL_OFFSET_TABLE_, %esi
	subl	$12, %esp
	.cfi_def_cfa_offset 32
	movl	%esi, 4(%esp)
	movl	32(%esp), %esi
	leal	31(%esi), %ebx
	sarl	$5, %ebx
	leal	0(,%ebx,4), %edi
	testl	%ebx, %ebx
	movl	%ebx, (%esp)
	movl	%edi, 8(%esp)
	leal	(%eax,%edi), %ebp
	jle	.L13
	xorl	%edi, %edi
	.p2align 4,,10
	.p2align 3
.L14:
	movl	0(%ebp,%edi,4), %ebx
	movl	(%eax,%edi,4), %esi
	orl	(%ecx,%edi,4), %ebx
	xorl	(%edx,%edi,4), %esi
	orl	%esi, %ebx
	movl	%ebx, 0(%ebp,%edi,4)
	orl	(%edx,%edi,4), %ebx
	movl	%ebx, (%eax,%edi,4)
	addl	$1, %edi
	cmpl	%edi, (%esp)
	jne	.L14
.L13:
	movl	4(%esp), %esi
	movl	8(%esp), %edx
	movl	32(%esp), %ecx
	movl	__masktab@GOT(%esi), %ebx
	subl	$4, %edx
	andl	$31, %ecx
	movl	(%ebx,%ecx,4), %ecx
	andl	%ecx, (%eax,%edx)
	andl	%ecx, 0(%ebp,%edx)
	addl	$12, %esp
	.cfi_def_cfa_offset 20
	popl	%ebx
	.cfi_restore 3
	.cfi_def_cfa_offset 16
	popl	%esi
	.cfi_restore 6
	.cfi_def_cfa_offset 12
	popl	%edi
	.cfi_restore 7
	.cfi_def_cfa_offset 8
	popl	%ebp
	.cfi_restore 5
	.cfi_def_cfa_offset 4
	ret
	.cfi_endproc
.LFE272:
	.size	asl_loc_combine_xprop_accum, .-asl_loc_combine_xprop_accum
	.p2align 4,,15
	.type	asl_loc_chg_vec_lhsbsel, @function
asl_loc_chg_vec_lhsbsel:
.LFB464:
	.cfi_startproc
	pushl	%ebp
	.cfi_def_cfa_offset 8
	.cfi_offset 5, -8
	pushl	%edi
	.cfi_def_cfa_offset 12
	.cfi_offset 7, -12
	pushl	%esi
	.cfi_def_cfa_offset 16
	.cfi_offset 6, -16
	movl	%ecx, %esi
	pushl	%ebx
	.cfi_def_cfa_offset 20
	.cfi_offset 3, -20
	movl	%edx, %ecx
	andl	$1, %esi
	sarl	$5, %edx
	andl	$31, %ecx
	subl	$8, %esp
	.cfi_def_cfa_offset 28
	sall	$2, %edx
	sall	%cl, %esi
	movl	$1, %ebx
	movl	%esi, (%esp)
	leal	(%eax,%edx), %esi
	sall	%cl, %ebx
	movl	(%esi), %ebp
	movl	%esi, 4(%esp)
	xorl	%esi, %esi
	movl	%ebp, %edi
	andl	%ebx, %edi
	cmpl	(%esp), %edi
	je	.L18
	movl	%ebx, %esi
	movl	4(%esp), %edi
	notl	%esi
	andl	%ebp, %esi
	orl	(%esp), %esi
	movl	%esi, (%edi)
	movl	$1, %esi
.L18:
	movl	28(%esp), %edi
	andl	$1, %edi
	sall	%cl, %edi
	movl	%edi, %ecx
	movl	32(%esp), %edi
	addl	$31, %edi
	sarl	$5, %edi
	leal	(%edx,%edi,4), %edx
	addl	%edx, %eax
	movl	(%eax), %edx
	movl	%edx, %edi
	andl	%ebx, %edi
	cmpl	%ecx, %edi
	je	.L17
	notl	%ebx
	movl	$1, %esi
	andl	%edx, %ebx
	orl	%ecx, %ebx
	movl	%ebx, (%eax)
.L17:
	addl	$8, %esp
	.cfi_def_cfa_offset 20
	movl	%esi, %eax
	popl	%ebx
	.cfi_restore 3
	.cfi_def_cfa_offset 16
	popl	%esi
	.cfi_restore 6
	.cfi_def_cfa_offset 12
	popl	%edi
	.cfi_restore 7
	.cfi_def_cfa_offset 8
	popl	%ebp
	.cfi_restore 5
	.cfi_def_cfa_offset 4
	ret
	.cfi_endproc
.LFE464:
	.size	asl_loc_chg_vec_lhsbsel, .-asl_loc_chg_vec_lhsbsel
	.p2align 4,,15
	.type	asl_loc_stmt_assign_to_accum_wide_id, @function
asl_loc_stmt_assign_to_accum_wide_id:
.LFB264:
	.cfi_startproc
	pushl	%ebp
	.cfi_def_cfa_offset 8
	.cfi_offset 5, -8
	pushl	%edi
	.cfi_def_cfa_offset 12
	.cfi_offset 7, -12
	pushl	%esi
	.cfi_def_cfa_offset 16
	.cfi_offset 6, -16
	pushl	%ebx
	.cfi_def_cfa_offset 20
	.cfi_offset 3, -20
	movl	%eax, %esi
	call	__x86.get_pc_thunk.bx
	addl	$_GLOBAL_OFFSET_TABLE_, %ebx
	subl	$28, %esp
	.cfi_def_cfa_offset 48
	movl	(%edx), %ebp
	movl	132(%eax), %eax
	movl	%ecx, (%esp)
	movl	8(%esi), %ecx
	leal	0(,%eax,4), %edi
	addl	$31, %ecx
	sarl	$5, %ecx
	testl	%ebp, %ebp
	movl	%ecx, 4(%esp)
	movl	12(%edx), %ecx
	movl	(%ecx,%eax,4), %ecx
	jne	.L24
	movl	16(%edx), %ebp
	addl	36(%edx), %edi
	testl	%ecx, %ecx
	movl	0(%ebp,%eax,4), %ebp
	je	.L25
.L26:
	movl	(%edi), %eax
	testl	%eax, %eax
	je	.L32
.L29:
	subl	$12, %esp
	.cfi_def_cfa_offset 60
	pushl	8(%esi)
	.cfi_def_cfa_offset 64
	movl	%ebp, %eax
	movl	64(%esp), %ecx
	movl	16(%esp), %edx
	call	asl_loc_combine_xprop_accum
	addl	$16, %esp
	.cfi_def_cfa_offset 48
.L30:
	orb	$4, 6(%esi)
	movl	$1, (%edi)
	addl	$28, %esp
	.cfi_remember_state
	.cfi_def_cfa_offset 20
	popl	%ebx
	.cfi_restore 3
	.cfi_def_cfa_offset 16
	popl	%esi
	.cfi_restore 6
	.cfi_def_cfa_offset 12
	popl	%edi
	.cfi_restore 7
	.cfi_def_cfa_offset 8
	popl	%ebp
	.cfi_restore 5
	.cfi_def_cfa_offset 4
	ret
	.p2align 4,,10
	.p2align 3
.L24:
	.cfi_restore_state
	movl	20(%edx), %ebp
	addl	40(%edx), %edi
	testl	%ecx, %ecx
	movl	0(%ebp,%eax,4), %ebp
	jne	.L26
	movl	32(%edx), %ecx
	movl	(%ecx,%eax,4), %ecx
	movl	%ecx, 8(%esp)
.L28:
	movl	4(%esp), %ecx
	movl	24(%edx), %edx
	subl	$4, %esp
	.cfi_def_cfa_offset 52
	sall	$2, %ecx
	pushl	%ecx
	.cfi_def_cfa_offset 56
	movl	%ecx, 20(%esp)
	pushl	$255
	.cfi_def_cfa_offset 60
	pushl	(%edx,%eax,4)
	.cfi_def_cfa_offset 64
	call	memset@PLT
	addl	$12, %esp
	.cfi_def_cfa_offset 52
	movl	16(%esp), %ecx
	pushl	%ecx
	.cfi_def_cfa_offset 56
	pushl	$255
	.cfi_def_cfa_offset 60
	pushl	20(%esp)
	.cfi_def_cfa_offset 64
	call	memset@PLT
	movl	(%edi), %eax
	addl	$16, %esp
	.cfi_def_cfa_offset 48
	testl	%eax, %eax
	jne	.L29
.L32:
	movl	4(%esp), %edx
	subl	$4, %esp
	.cfi_def_cfa_offset 52
	sall	$2, %edx
	pushl	%edx
	.cfi_def_cfa_offset 56
	movl	%edx, 12(%esp)
	pushl	8(%esp)
	.cfi_def_cfa_offset 60
	pushl	%ebp
	.cfi_def_cfa_offset 64
	call	memcpy@PLT
	movl	20(%esp), %edx
	addl	$12, %esp
	.cfi_def_cfa_offset 52
	addl	%edx, %ebp
	pushl	%edx
	.cfi_def_cfa_offset 56
	pushl	56(%esp)
	.cfi_def_cfa_offset 60
	pushl	%ebp
	.cfi_def_cfa_offset 64
	call	memcpy@PLT
	addl	$16, %esp
	.cfi_def_cfa_offset 48
	jmp	.L30
	.p2align 4,,10
	.p2align 3
.L25:
	movl	28(%edx), %ecx
	movl	(%ecx,%eax,4), %ecx
	movl	%ecx, 8(%esp)
	jmp	.L28
	.cfi_endproc
.LFE264:
	.size	asl_loc_stmt_assign_to_accum_wide_id, .-asl_loc_stmt_assign_to_accum_wide_id
	.p2align 4,,15
	.type	asl_loc_get_new_event, @function
asl_loc_get_new_event:
.LFB163:
	.cfi_startproc
	pushl	%esi
	.cfi_def_cfa_offset 8
	.cfi_offset 6, -8
	pushl	%ebx
	.cfi_def_cfa_offset 12
	.cfi_offset 3, -12
	movl	%eax, %esi
	call	__x86.get_pc_thunk.bx
	addl	$_GLOBAL_OFFSET_TABLE_, %ebx
	subl	$4, %esp
	.cfi_def_cfa_offset 16
	movl	__free_tev_ndx@GOT(%ebx), %edx
	movl	(%edx), %eax
	cmpl	$1, %eax
	jle	.L34
	movl	__free_tevs@GOT(%ebx), %ecx
	subl	$1, %eax
	movl	%eax, (%edx)
	movl	(%ecx), %ecx
	movl	(%ecx,%eax,4), %eax
.L35:
	movl	12(%esi), %edx
	movl	%edx, 12(%eax)
	movl	32(%esi), %edx
	movl	$0, (%eax)
	movl	$0, 4(%eax)
	movl	40(%esi), %ecx
	movl	%edx, 32(%eax)
	movl	36(%esi), %edx
	movl	$1, 8(%eax)
	movl	%ecx, 40(%eax)
	movl	%edx, 36(%eax)
	movl	__process_next_event_free_enterp@GOT(%ebx), %edx
	movl	(%edx), %edx
	movl	%edx, 16(%eax)
	addl	$4, %esp
	.cfi_remember_state
	.cfi_def_cfa_offset 12
	popl	%ebx
	.cfi_restore 3
	.cfi_def_cfa_offset 8
	popl	%esi
	.cfi_restore 6
	.cfi_def_cfa_offset 4
	ret
	.p2align 4,,10
	.p2align 3
.L34:
	.cfi_restore_state
	subl	$12, %esp
	.cfi_def_cfa_offset 28
	pushl	$60
	.cfi_def_cfa_offset 32
	call	__my_malloc@PLT
	addl	$16, %esp
	.cfi_def_cfa_offset 16
	jmp	.L35
	.cfi_endproc
.LFE163:
	.size	asl_loc_get_new_event, .-asl_loc_get_new_event
	.p2align 4,,15
	.type	asl_loc_get_new_event_nb, @function
asl_loc_get_new_event_nb:
.LFB164:
	.cfi_startproc
	pushl	%esi
	.cfi_def_cfa_offset 8
	.cfi_offset 6, -8
	pushl	%ebx
	.cfi_def_cfa_offset 12
	.cfi_offset 3, -12
	movl	%eax, %esi
	call	__x86.get_pc_thunk.bx
	addl	$_GLOBAL_OFFSET_TABLE_, %ebx
	subl	$4, %esp
	.cfi_def_cfa_offset 16
	movl	__free_tev_ndx@GOT(%ebx), %edx
	movl	(%edx), %eax
	cmpl	$1, %eax
	jle	.L38
	movl	__free_tevs@GOT(%ebx), %ecx
	subl	$1, %eax
	movl	%eax, (%edx)
	movl	(%ecx), %ecx
	movl	(%ecx,%eax,4), %eax
.L39:
	movl	16(%esi), %edx
	movl	40(%esi), %ebx
	movl	36(%esi), %ecx
	movl	%edx, 12(%eax)
	movl	32(%esi), %edx
	movl	%ecx, 36(%eax)
	movl	%ebx, 40(%eax)
	movl	$0, (%eax)
	movl	$0, 4(%eax)
	movl	%edx, 32(%eax)
	movl	$1, 8(%eax)
	addl	$4, %esp
	.cfi_remember_state
	.cfi_def_cfa_offset 12
	popl	%ebx
	.cfi_restore 3
	.cfi_def_cfa_offset 8
	popl	%esi
	.cfi_restore 6
	.cfi_def_cfa_offset 4
	ret
	.p2align 4,,10
	.p2align 3
.L38:
	.cfi_restore_state
	subl	$12, %esp
	.cfi_def_cfa_offset 28
	pushl	$60
	.cfi_def_cfa_offset 32
	call	__my_malloc@PLT
	addl	$16, %esp
	.cfi_def_cfa_offset 16
	jmp	.L39
	.cfi_endproc
.LFE164:
	.size	asl_loc_get_new_event_nb, .-asl_loc_get_new_event_nb
	.p2align 4,,15
	.type	asl_loc_get_new_nbmem_event, @function
asl_loc_get_new_nbmem_event:
.LFB165:
	.cfi_startproc
	pushl	%ebp
	.cfi_def_cfa_offset 8
	.cfi_offset 5, -8
	pushl	%edi
	.cfi_def_cfa_offset 12
	.cfi_offset 7, -12
	movl	%edx, %ebp
	pushl	%esi
	.cfi_def_cfa_offset 16
	.cfi_offset 6, -16
	pushl	%ebx
	.cfi_def_cfa_offset 20
	.cfi_offset 3, -20
	movl	%eax, %edi
	call	__x86.get_pc_thunk.bx
	addl	$_GLOBAL_OFFSET_TABLE_, %ebx
	subl	$12, %esp
	.cfi_def_cfa_offset 32
	movl	__free_tev_ndx@GOT(%ebx), %edx
	movl	(%edx), %eax
	cmpl	$1, %eax
	jle	.L42
	movl	__free_tevs@GOT(%ebx), %ecx
	subl	$1, %eax
	movl	%eax, (%edx)
	movl	(%ecx), %ecx
	movl	(%ecx,%eax,4), %esi
.L43:
	movl	16(%edi), %eax
	subl	$12, %esp
	.cfi_def_cfa_offset 44
	movl	%eax, 12(%esi)
	movl	32(%edi), %eax
	movl	$0, (%esi)
	movl	$0, 4(%esi)
	movl	%eax, 32(%esi)
	pushl	%ebp
	.cfi_def_cfa_offset 48
	call	__my_malloc@PLT
	movl	40(%edi), %edx
	movl	%eax, 4(%esi)
	movl	36(%edi), %eax
	movl	$1, 8(%esi)
	movl	%ebp, 52(%esi)
	movl	%edx, 40(%esi)
	movl	%eax, 36(%esi)
	addl	$28, %esp
	.cfi_def_cfa_offset 20
	movl	%esi, %eax
	popl	%ebx
	.cfi_restore 3
	.cfi_def_cfa_offset 16
	popl	%esi
	.cfi_restore 6
	.cfi_def_cfa_offset 12
	popl	%edi
	.cfi_restore 7
	.cfi_def_cfa_offset 8
	popl	%ebp
	.cfi_restore 5
	.cfi_def_cfa_offset 4
	ret
	.p2align 4,,10
	.p2align 3
.L42:
	.cfi_def_cfa_offset 32
	.cfi_offset 3, -20
	.cfi_offset 5, -8
	.cfi_offset 6, -16
	.cfi_offset 7, -12
	subl	$12, %esp
	.cfi_def_cfa_offset 44
	pushl	$60
	.cfi_def_cfa_offset 48
	call	__my_malloc@PLT
	addl	$16, %esp
	.cfi_def_cfa_offset 32
	movl	%eax, %esi
	jmp	.L43
	.cfi_endproc
.LFE165:
	.size	asl_loc_get_new_nbmem_event, .-asl_loc_get_new_nbmem_event
	.p2align 4,,15
	.type	asl_loc_get_new_thread_event, @function
asl_loc_get_new_thread_event:
.LFB166:
	.cfi_startproc
	pushl	%ebx
	.cfi_def_cfa_offset 8
	.cfi_offset 3, -8
	call	__x86.get_pc_thunk.bx
	addl	$_GLOBAL_OFFSET_TABLE_, %ebx
	subl	$8, %esp
	.cfi_def_cfa_offset 16
	movl	__free_tev_ndx@GOT(%ebx), %edx
	movl	(%edx), %eax
	cmpl	$1, %eax
	jle	.L46
	movl	__free_tevs@GOT(%ebx), %ecx
	subl	$1, %eax
	movl	%eax, (%edx)
	movl	(%ecx), %ecx
	movl	(%ecx,%eax,4), %eax
.L47:
	movl	__process_compiled_thrd_ev_enterp@GOT(%ebx), %edx
	movl	(%edx), %edx
	movl	%edx, 12(%eax)
	movl	__simtime@GOT(%ebx), %edx
	movl	4(%edx), %ecx
	movl	(%edx), %edx
	movl	$1, 8(%eax)
	movl	$0, 4(%eax)
	movl	%edx, 24(%eax)
	movl	__idp@GOT(%ebx), %edx
	movl	%ecx, 28(%eax)
	movl	(%edx), %edx
	movl	$0, (%eax)
	movl	%edx, 32(%eax)
	movl	__process_next_event_free_enterp@GOT(%ebx), %edx
	movl	(%edx), %edx
	movl	%edx, 16(%eax)
	addl	$8, %esp
	.cfi_remember_state
	.cfi_def_cfa_offset 8
	popl	%ebx
	.cfi_restore 3
	.cfi_def_cfa_offset 4
	ret
	.p2align 4,,10
	.p2align 3
.L46:
	.cfi_restore_state
	subl	$12, %esp
	.cfi_def_cfa_offset 28
	pushl	$60
	.cfi_def_cfa_offset 32
	call	__my_malloc@PLT
	addl	$16, %esp
	.cfi_def_cfa_offset 16
	jmp	.L47
	.cfi_endproc
.LFE166:
	.size	asl_loc_get_new_thread_event, .-asl_loc_get_new_thread_event
	.p2align 4,,15
	.type	asl_loc_add_new_heap_time, @function
asl_loc_add_new_heap_time:
.LFB492:
	.cfi_startproc
	pushl	%ebp
	.cfi_def_cfa_offset 8
	.cfi_offset 5, -8
	pushl	%edi
	.cfi_def_cfa_offset 12
	.cfi_offset 7, -12
	movl	%eax, %ebp
	pushl	%esi
	.cfi_def_cfa_offset 16
	.cfi_offset 6, -16
	pushl	%ebx
	.cfi_def_cfa_offset 20
	.cfi_offset 3, -20
	movl	%edx, %edi
	call	__x86.get_pc_thunk.bx
	addl	$_GLOBAL_OFFSET_TABLE_, %ebx
	subl	$44, %esp
	.cfi_def_cfa_offset 64
	movl	__heap_size@GOT(%ebx), %eax
	movl	(%eax), %ecx
	movl	%eax, 24(%esp)
	leal	0(,%ecx,4), %eax
	movl	%ecx, 16(%esp)
	movl	%eax, 12(%esp)
	movl	__heap@GOT(%ebx), %eax
	movl	%eax, 28(%esp)
	movl	(%eax), %esi
	movl	__heap_maxsize@GOT(%ebx), %eax
	cmpl	(%eax), %ecx
	je	.L50
	movl	__free_heap_ndx@GOT(%ebx), %edx
	movl	(%edx), %eax
	movl	%eax, 20(%esp)
	movl	__free_heap@GOT(%ebx), %eax
	movl	(%eax), %ecx
.L51:
	movl	20(%esp), %eax
	subl	$1, %eax
	movl	%eax, (%edx)
	movl	(%ecx,%eax,4), %eax
	movl	__time_hash@GOT(%ebx), %edx
	movl	24(%ebp), %ecx
	movl	$0, 48(%ebp)
	movl	%eax, 20(%ebp)
	movl	28(%ebp), %ebp
	movl	%edi, (%eax)
	movl	%ecx, 4(%eax)
	movl	$0, 28(%eax)
	movl	%ecx, 20(%esp)
	movl	%ebp, 8(%eax)
	movl	%eax, (%edx,%edi,4)
	movl	16(%esp), %edi
	cmpl	$1, %edi
	jle	.L55
	sarl	%edi
	movl	(%esi,%edi,4), %ecx
	movl	%edi, %edx
	cmpl	8(%ecx), %ebp
	ja	.L55
	jb	.L60
	movl	20(%esp), %edi
	cmpl	4(%ecx), %edi
	ja	.L55
.L60:
	movl	16(%esp), %edi
	.p2align 4,,10
	.p2align 3
.L57:
	movl	%ecx, (%esi,%edi,4)
	leal	0(,%edx,4), %edi
	cmpl	$1, %edx
	movl	%edi, 12(%esp)
	je	.L55
	movl	%edx, %ebx
	movl	%edx, %edi
	sarl	%ebx
	movl	(%esi,%ebx,4), %ecx
	cmpl	%ebp, 8(%ecx)
	jb	.L55
	ja	.L61
	movl	20(%esp), %edx
	cmpl	%edx, 4(%ecx)
	jnb	.L61
.L55:
	movl	16(%esp), %edx
	movl	24(%esp), %edi
	addl	$1, %edx
	movl	%edx, (%edi)
	movl	12(%esp), %edi
	movl	%eax, (%esi,%edi)
	addl	$44, %esp
	.cfi_remember_state
	.cfi_def_cfa_offset 20
	popl	%ebx
	.cfi_restore 3
	.cfi_def_cfa_offset 16
	popl	%esi
	.cfi_restore 6
	.cfi_def_cfa_offset 12
	popl	%edi
	.cfi_restore 7
	.cfi_def_cfa_offset 8
	popl	%ebp
	.cfi_restore 5
	.cfi_def_cfa_offset 4
	ret
	.p2align 4,,10
	.p2align 3
.L61:
	.cfi_restore_state
	movl	%ebx, %edx
	jmp	.L57
	.p2align 4,,10
	.p2align 3
.L50:
	movl	16(%esp), %edx
	subl	$4, %esp
	.cfi_def_cfa_offset 68
	movl	%edx, %ecx
	shrl	%ecx
	addl	%ecx, %edx
	movl	%ecx, 20(%esp)
	movl	%edx, (%eax)
	sall	$2, %edx
	pushl	%edx
	.cfi_def_cfa_offset 72
	movl	%edx, 28(%esp)
	pushl	20(%esp)
	.cfi_def_cfa_offset 76
	pushl	%esi
	.cfi_def_cfa_offset 80
	call	__my_realloc@PLT
	movl	44(%esp), %esi
	movl	%eax, (%esi)
	movl	__free_heap@GOT(%ebx), %esi
	popl	%eax
	.cfi_def_cfa_offset 76
	popl	%edx
	.cfi_def_cfa_offset 72
	pushl	20(%esp)
	.cfi_def_cfa_offset 76
	pushl	(%esi)
	.cfi_def_cfa_offset 80
	call	__my_free@PLT
	movl	36(%esp), %edx
	movl	%edx, (%esp)
	call	__my_malloc@PLT
	movl	%eax, (%esi)
	movl	32(%esp), %eax
	sall	$5, %eax
	movl	%eax, (%esp)
	call	__my_malloc@PLT
	movl	32(%esp), %ecx
	leal	1(%ecx), %edx
	movl	(%esi), %ecx
	movl	%edx, 36(%esp)
	addl	$16, %esp
	.cfi_def_cfa_offset 64
	cmpl	$1, %edx
	je	.L54
	movl	16(%esp), %esi
	leal	4(%ecx), %edx
	leal	(%edx,%esi,4), %esi
	.p2align 4,,10
	.p2align 3
.L53:
	movl	%eax, (%edx)
	addl	$4, %edx
	addl	$32, %eax
	cmpl	%esi, %edx
	jne	.L53
.L54:
	movl	28(%esp), %eax
	movl	__free_heap_ndx@GOT(%ebx), %edx
	movl	(%eax), %esi
	movl	24(%esp), %eax
	movl	(%eax), %eax
	movl	%eax, 16(%esp)
	sall	$2, %eax
	movl	%eax, 12(%esp)
	jmp	.L51
	.cfi_endproc
.LFE492:
	.size	asl_loc_add_new_heap_time, .-asl_loc_add_new_heap_time
	.p2align 4,,15
	.type	asl_loc_conflict_list, @function
asl_loc_conflict_list:
.LFB487:
	.cfi_startproc
	pushl	%ebp
	.cfi_def_cfa_offset 8
	.cfi_offset 5, -8
	pushl	%edi
	.cfi_def_cfa_offset 12
	.cfi_offset 7, -12
	movl	%edx, %ecx
	pushl	%esi
	.cfi_def_cfa_offset 16
	.cfi_offset 6, -16
	pushl	%ebx
	.cfi_def_cfa_offset 20
	.cfi_offset 3, -20
	call	__x86.get_pc_thunk.si
	addl	$_GLOBAL_OFFSET_TABLE_, %esi
	subl	$28, %esp
	.cfi_def_cfa_offset 48
	movl	%edx, 4(%esp)
	movl	28(%eax), %edx
	cmpl	%edx, 8(%ecx)
	movl	%esi, 12(%esp)
	movl	24(%eax), %esi
	movl	%eax, 8(%esp)
	movl	%esi, (%esp)
	jb	.L67
	jbe	.L88
.L83:
	movl	4(%esp), %esi
	movl	8(%esp), %edi
	movl	(%esi), %edx
	movl	%edi, %eax
	call	asl_loc_add_new_heap_time
	movl	%esi, 28(%eax)
	movl	%edi, 16(%eax)
	movl	%edi, 12(%eax)
	movl	$0, 24(%eax)
	movl	$0, 20(%eax)
	addl	$28, %esp
	.cfi_remember_state
	.cfi_def_cfa_offset 20
	popl	%ebx
	.cfi_restore 3
	.cfi_def_cfa_offset 16
	popl	%esi
	.cfi_restore 6
	.cfi_def_cfa_offset 12
	popl	%edi
	.cfi_restore 7
	.cfi_def_cfa_offset 8
	popl	%ebp
	.cfi_restore 5
	.cfi_def_cfa_offset 4
	ret
	.p2align 4,,10
	.p2align 3
.L88:
	.cfi_restore_state
	cmpl	%esi, 4(%ecx)
	ja	.L83
.L67:
	movl	4(%esp), %eax
	movl	28(%eax), %esi
	testl	%esi, %esi
	je	.L79
	movl	8(%esi), %ebx
	movl	(%esp), %ebp
	movl	4(%esi), %edi
	movl	%ebp, %eax
	movl	%ebx, %ecx
	xorl	%edi, %eax
	xorl	%edx, %ecx
	orl	%eax, %ecx
	je	.L80
	cmpl	%edx, %ebx
	ja	.L81
	jnb	.L89
.L74:
	movl	28(%esi), %ebx
	testl	%ebx, %ebx
	je	.L70
	.p2align 4,,10
	.p2align 3
.L78:
	movl	8(%ebx), %eax
	movl	4(%ebx), %ecx
	movl	(%esp), %edi
	movl	%eax, %ebp
	xorl	%ecx, %edi
	xorl	%edx, %ebp
	orl	%edi, %ebp
	je	.L71
	cmpl	%edx, %eax
	jb	.L82
	jbe	.L90
.L72:
	movl	4(%esp), %edi
	movl	8(%esp), %ebp
	movl	(%edi), %edx
	movl	%ebp, %eax
	call	asl_loc_add_new_heap_time
	movl	12(%esp), %ecx
	movl	(%edi), %edx
	movl	__time_hash@GOT(%ecx), %ecx
	movl	%edi, (%ecx,%edx,4)
	movl	%eax, 28(%esi)
	movl	%ebx, 28(%eax)
	movl	%ebp, 16(%eax)
	movl	%ebp, 12(%eax)
	movl	$0, 24(%eax)
	movl	$0, 20(%eax)
.L66:
	addl	$28, %esp
	.cfi_remember_state
	.cfi_def_cfa_offset 20
	popl	%ebx
	.cfi_restore 3
	.cfi_def_cfa_offset 16
	popl	%esi
	.cfi_restore 6
	.cfi_def_cfa_offset 12
	popl	%edi
	.cfi_restore 7
	.cfi_def_cfa_offset 8
	popl	%ebp
	.cfi_restore 5
	.cfi_def_cfa_offset 4
	ret
	.p2align 4,,10
	.p2align 3
.L90:
	.cfi_restore_state
	cmpl	(%esp), %ecx
	ja	.L72
.L82:
	movl	%ebx, %esi
	movl	28(%esi), %ebx
	testl	%ebx, %ebx
	jne	.L78
.L70:
	movl	4(%esp), %edi
	movl	8(%esp), %ebx
	movl	(%edi), %edx
	movl	%ebx, %eax
	call	asl_loc_add_new_heap_time
	movl	12(%esp), %edx
	movl	(%edi), %ecx
	movl	__time_hash@GOT(%edx), %edx
	movl	%edi, (%edx,%ecx,4)
	movl	%eax, 28(%esi)
	movl	%ebx, 16(%eax)
	movl	%ebx, 12(%eax)
	movl	$0, 24(%eax)
	movl	$0, 20(%eax)
	addl	$28, %esp
	.cfi_remember_state
	.cfi_def_cfa_offset 20
	popl	%ebx
	.cfi_restore 3
	.cfi_def_cfa_offset 16
	popl	%esi
	.cfi_restore 6
	.cfi_def_cfa_offset 12
	popl	%edi
	.cfi_restore 7
	.cfi_def_cfa_offset 8
	popl	%ebp
	.cfi_restore 5
	.cfi_def_cfa_offset 4
	ret
.L80:
	.cfi_restore_state
	movl	%esi, %ebx
	.p2align 4,,10
	.p2align 3
.L71:
	movl	8(%esp), %eax
	movl	%ebx, 20(%eax)
	movl	16(%ebx), %eax
	testl	%eax, %eax
	je	.L91
	movl	8(%esp), %edx
	movl	%edx, 44(%eax)
	movl	%eax, 48(%edx)
	movl	%edx, 16(%ebx)
	addl	$28, %esp
	.cfi_remember_state
	.cfi_def_cfa_offset 20
	popl	%ebx
	.cfi_restore 3
	.cfi_def_cfa_offset 16
	popl	%esi
	.cfi_restore 6
	.cfi_def_cfa_offset 12
	popl	%edi
	.cfi_restore 7
	.cfi_def_cfa_offset 8
	popl	%ebp
	.cfi_restore 5
	.cfi_def_cfa_offset 4
	ret
	.p2align 4,,10
	.p2align 3
.L89:
	.cfi_restore_state
	cmpl	%ebp, %edi
	jbe	.L74
.L81:
	movl	%esi, %ebx
	movl	4(%esp), %esi
	jmp	.L72
	.p2align 4,,10
	.p2align 3
.L91:
	movl	8(%esp), %eax
	movl	%eax, 16(%ebx)
	movl	%eax, 12(%ebx)
	jmp	.L66
.L79:
	movl	4(%esp), %esi
	jmp	.L70
	.cfi_endproc
.LFE487:
	.size	asl_loc_conflict_list, .-asl_loc_conflict_list
	.p2align 4,,15
	.type	asl_loc_nb_conflict_list, @function
asl_loc_nb_conflict_list:
.LFB491:
	.cfi_startproc
	pushl	%ebp
	.cfi_def_cfa_offset 8
	.cfi_offset 5, -8
	pushl	%edi
	.cfi_def_cfa_offset 12
	.cfi_offset 7, -12
	movl	%edx, %ecx
	pushl	%esi
	.cfi_def_cfa_offset 16
	.cfi_offset 6, -16
	pushl	%ebx
	.cfi_def_cfa_offset 20
	.cfi_offset 3, -20
	call	__x86.get_pc_thunk.si
	addl	$_GLOBAL_OFFSET_TABLE_, %esi
	subl	$28, %esp
	.cfi_def_cfa_offset 48
	movl	%edx, 4(%esp)
	movl	28(%eax), %edx
	cmpl	%edx, 8(%ecx)
	movl	%esi, 8(%esp)
	movl	24(%eax), %esi
	movl	%eax, 12(%esp)
	movl	%esi, (%esp)
	jb	.L93
	jbe	.L114
.L109:
	movl	4(%esp), %esi
	movl	12(%esp), %edi
	movl	(%esi), %edx
	movl	%edi, %eax
	call	asl_loc_add_new_heap_time
	movl	8(%esp), %edx
	movl	%esi, 28(%eax)
	movl	%edi, 24(%eax)
	movl	%edi, 20(%eax)
	movl	__last_nb_hp@GOT(%edx), %edx
	movl	%eax, (%edx)
	movl	$0, 16(%eax)
	movl	$0, 12(%eax)
	addl	$28, %esp
	.cfi_remember_state
	.cfi_def_cfa_offset 20
	popl	%ebx
	.cfi_restore 3
	.cfi_def_cfa_offset 16
	popl	%esi
	.cfi_restore 6
	.cfi_def_cfa_offset 12
	popl	%edi
	.cfi_restore 7
	.cfi_def_cfa_offset 8
	popl	%ebp
	.cfi_restore 5
	.cfi_def_cfa_offset 4
	ret
	.p2align 4,,10
	.p2align 3
.L114:
	.cfi_restore_state
	cmpl	%esi, 4(%ecx)
	ja	.L109
.L93:
	movl	4(%esp), %eax
	movl	28(%eax), %esi
	testl	%esi, %esi
	je	.L105
	movl	8(%esi), %ebx
	movl	(%esp), %ebp
	movl	4(%esi), %edi
	movl	%ebp, %eax
	movl	%ebx, %ecx
	xorl	%edi, %eax
	xorl	%edx, %ecx
	orl	%eax, %ecx
	je	.L106
	cmpl	%edx, %ebx
	ja	.L107
	jnb	.L115
.L100:
	movl	28(%esi), %ebx
	testl	%ebx, %ebx
	je	.L96
	.p2align 4,,10
	.p2align 3
.L104:
	movl	8(%ebx), %eax
	movl	4(%ebx), %ecx
	movl	(%esp), %edi
	movl	%eax, %ebp
	xorl	%ecx, %edi
	xorl	%edx, %ebp
	orl	%edi, %ebp
	je	.L97
	cmpl	%edx, %eax
	jb	.L108
	jbe	.L116
.L98:
	movl	4(%esp), %edi
	movl	12(%esp), %ebp
	movl	(%edi), %edx
	movl	%ebp, %eax
	call	asl_loc_add_new_heap_time
	movl	8(%esp), %edx
	movl	(%edi), %ecx
	movl	__time_hash@GOT(%edx), %edx
	movl	%edi, (%edx,%ecx,4)
	movl	8(%esp), %edx
	movl	%eax, 28(%esi)
	movl	%ebx, 28(%eax)
	movl	%ebp, 24(%eax)
	movl	%ebp, 20(%eax)
	movl	__last_nb_hp@GOT(%edx), %edx
	movl	%eax, (%edx)
	movl	$0, 16(%eax)
	movl	$0, 12(%eax)
.L92:
	addl	$28, %esp
	.cfi_remember_state
	.cfi_def_cfa_offset 20
	popl	%ebx
	.cfi_restore 3
	.cfi_def_cfa_offset 16
	popl	%esi
	.cfi_restore 6
	.cfi_def_cfa_offset 12
	popl	%edi
	.cfi_restore 7
	.cfi_def_cfa_offset 8
	popl	%ebp
	.cfi_restore 5
	.cfi_def_cfa_offset 4
	ret
	.p2align 4,,10
	.p2align 3
.L116:
	.cfi_restore_state
	cmpl	(%esp), %ecx
	ja	.L98
.L108:
	movl	%ebx, %esi
	movl	28(%esi), %ebx
	testl	%ebx, %ebx
	jne	.L104
.L96:
	movl	4(%esp), %edi
	movl	12(%esp), %ebx
	movl	(%edi), %edx
	movl	%ebx, %eax
	call	asl_loc_add_new_heap_time
	movl	8(%esp), %ebp
	movl	(%edi), %ecx
	movl	__time_hash@GOT(%ebp), %edx
	movl	%edi, (%edx,%ecx,4)
	movl	__last_nb_hp@GOT(%ebp), %edx
	movl	%eax, 28(%esi)
	movl	%ebx, 24(%eax)
	movl	%ebx, 20(%eax)
	movl	%eax, (%edx)
	movl	$0, 16(%eax)
	movl	$0, 12(%eax)
	addl	$28, %esp
	.cfi_remember_state
	.cfi_def_cfa_offset 20
	popl	%ebx
	.cfi_restore 3
	.cfi_def_cfa_offset 16
	popl	%esi
	.cfi_restore 6
	.cfi_def_cfa_offset 12
	popl	%edi
	.cfi_restore 7
	.cfi_def_cfa_offset 8
	popl	%ebp
	.cfi_restore 5
	.cfi_def_cfa_offset 4
	ret
.L106:
	.cfi_restore_state
	movl	%esi, %ebx
	.p2align 4,,10
	.p2align 3
.L97:
	movl	8(%esp), %edx
	movl	24(%ebx), %eax
	movl	__last_nb_hp@GOT(%edx), %edx
	testl	%eax, %eax
	movl	%ebx, (%edx)
	je	.L117
	movl	12(%esp), %edx
	movl	%edx, 44(%eax)
	movl	%eax, 48(%edx)
	movl	%edx, 24(%ebx)
	addl	$28, %esp
	.cfi_remember_state
	.cfi_def_cfa_offset 20
	popl	%ebx
	.cfi_restore 3
	.cfi_def_cfa_offset 16
	popl	%esi
	.cfi_restore 6
	.cfi_def_cfa_offset 12
	popl	%edi
	.cfi_restore 7
	.cfi_def_cfa_offset 8
	popl	%ebp
	.cfi_restore 5
	.cfi_def_cfa_offset 4
	ret
	.p2align 4,,10
	.p2align 3
.L115:
	.cfi_restore_state
	cmpl	%ebp, %edi
	jbe	.L100
.L107:
	movl	%esi, %ebx
	movl	4(%esp), %esi
	jmp	.L98
	.p2align 4,,10
	.p2align 3
.L117:
	movl	12(%esp), %eax
	movl	%eax, 24(%ebx)
	movl	%eax, 20(%ebx)
	jmp	.L92
.L105:
	movl	4(%esp), %esi
	jmp	.L96
	.cfi_endproc
.LFE491:
	.size	asl_loc_nb_conflict_list, .-asl_loc_nb_conflict_list
	.section	.rodata.str1.4,"aMS",@progbits,1
	.align 4
.LC0:
	.string	"attempted deassign of reg %s in instance %s failed - not assigned"
	.text
	.p2align 4,,15
	.type	asl_loc_do_qc_deassign, @function
asl_loc_do_qc_deassign:
.LFB223:
	.cfi_startproc
	pushl	%ebp
	.cfi_def_cfa_offset 8
	.cfi_offset 5, -8
	pushl	%edi
	.cfi_def_cfa_offset 12
	.cfi_offset 7, -12
	movl	%eax, %edi
	pushl	%esi
	.cfi_def_cfa_offset 16
	.cfi_offset 6, -16
	pushl	%ebx
	.cfi_def_cfa_offset 20
	.cfi_offset 3, -20
	call	__x86.get_pc_thunk.bx
	addl	$_GLOBAL_OFFSET_TABLE_, %ebx
	subl	$28, %esp
	.cfi_def_cfa_offset 48
	movzwl	(%eax), %eax
	andw	$1023, %ax
	cmpw	$85, %ax
	je	.L119
	movl	__idp@GOT(%ebx), %ebp
	movl	$0, 4(%esp)
	movl	0(%ebp), %eax
.L120:
	movl	12(%edi), %ecx
	movl	(%eax), %eax
	movl	12(%ecx), %ecx
	leal	(%eax,%eax,2), %eax
	sall	$4, %eax
	movl	68(%ecx), %ecx
	movl	%eax, 8(%esp)
	leal	24(%ecx,%eax), %esi
	movzbl	(%esi), %eax
	testb	$3, %al
	je	.L135
	movl	%eax, %edi
	andl	$-2, %edi
	testb	$2, %al
	movl	%edi, %edx
	movb	%dl, (%esi)
	jne	.L123
	movl	20(%esi), %eax
	testl	%eax, %eax
	je	.L123
	movl	%ecx, 12(%esp)
	subl	$12, %esp
	.cfi_def_cfa_offset 60
	pushl	%eax
	.cfi_def_cfa_offset 64
	call	__dcelst_off@PLT
	addl	$16, %esp
	.cfi_def_cfa_offset 48
	movl	12(%esp), %ecx
.L123:
	movl	__assign_active@GOT(%ebx), %eax
	andb	$-3, (%esi)
	movl	$0, 20(%esi)
	movl	$0, (%eax)
	movl	8(%esp), %eax
	testb	$1, (%ecx,%eax)
	jne	.L136
.L122:
	movl	4(%esp), %eax
	testl	%eax, %eax
	je	.L118
	movl	%eax, 0(%ebp)
.L118:
	addl	$28, %esp
	.cfi_remember_state
	.cfi_def_cfa_offset 20
	popl	%ebx
	.cfi_restore 3
	.cfi_def_cfa_offset 16
	popl	%esi
	.cfi_restore 6
	.cfi_def_cfa_offset 12
	popl	%edi
	.cfi_restore 7
	.cfi_def_cfa_offset 8
	popl	%ebp
	.cfi_restore 5
	.cfi_def_cfa_offset 4
	ret
	.p2align 4,,10
	.p2align 3
.L136:
	.cfi_restore_state
	movl	__force_active@GOT(%ebx), %eax
	movl	$1, (%eax)
	jmp	.L122
	.p2align 4,,10
	.p2align 3
.L135:
	movl	__xs@GOT(%ebx), %eax
	subl	$12, %esp
	.cfi_def_cfa_offset 60
	pushl	(%eax)
	.cfi_def_cfa_offset 64
	call	__msg2_cur_blditree@PLT
	movl	%eax, %esi
	movl	%edi, (%esp)
	call	__to_idnam@PLT
	pushl	%esi
	.cfi_def_cfa_offset 68
	pushl	%eax
	.cfi_def_cfa_offset 72
	leal	.LC0@GOTOFF(%ebx), %eax
	pushl	%eax
	.cfi_def_cfa_offset 76
	pushl	$462
	.cfi_def_cfa_offset 80
	call	__sgfinform@PLT
	addl	$32, %esp
	.cfi_def_cfa_offset 48
	jmp	.L122
	.p2align 4,,10
	.p2align 3
.L119:
	subl	$12, %esp
	.cfi_def_cfa_offset 60
	pushl	16(%edi)
	.cfi_def_cfa_offset 64
	call	__xmrget_refgrp_to_targ@PLT
	movl	__idp@GOT(%ebx), %ebp
	movl	0(%ebp), %edx
	movl	%eax, 0(%ebp)
	movl	%edx, 20(%esp)
	addl	$16, %esp
	.cfi_def_cfa_offset 48
	jmp	.L120
	.cfi_endproc
.LFE223:
	.size	asl_loc_do_qc_deassign, .-asl_loc_do_qc_deassign
	.p2align 4,,15
	.type	asl_loc_set_restore_xprop_accum_block, @function
asl_loc_set_restore_xprop_accum_block:
.LFB270:
	.cfi_startproc
	pushl	%ebp
	.cfi_def_cfa_offset 8
	.cfi_offset 5, -8
	pushl	%edi
	.cfi_def_cfa_offset 12
	.cfi_offset 7, -12
	pushl	%esi
	.cfi_def_cfa_offset 16
	.cfi_offset 6, -16
	pushl	%ebx
	.cfi_def_cfa_offset 20
	.cfi_offset 3, -20
	call	__x86.get_pc_thunk.si
	addl	$_GLOBAL_OFFSET_TABLE_, %esi
	subl	$76, %esp
	.cfi_def_cfa_offset 96
	movl	4(%eax), %edi
	andb	$-33, 8(%eax)
	movl	%esi, 24(%esp)
	testl	%edi, %edi
	jle	.L137
	movl	%eax, %edi
	movl	__masktab@GOT(%esi), %eax
	xorl	%ebp, %ebp
	movl	%edx, 32(%esp)
	movl	%ebp, %esi
	movl	%eax, 52(%esp)
	.p2align 4,,10
	.p2align 3
.L162:
	leal	0(,%esi,4), %eax
	movl	%eax, 20(%esp)
	movl	44(%edi), %eax
	movl	(%eax,%esi,4), %ecx
	movl	8(%ecx), %eax
	movl	128(%ecx), %edx
	movl	%ecx, 4(%esp)
	movl	16(%edi), %ecx
	leal	31(%eax), %ebx
	movl	%edx, 16(%esp)
	movl	20(%edi), %edx
	movl	(%ecx,%esi,4), %ecx
	sarl	$5, %ebx
	movl	%ebx, 12(%esp)
	movl	(%edi), %ebx
	movl	(%edx,%esi,4), %edx
	movl	%ecx, 8(%esp)
	testl	%ebx, %ebx
	je	.L139
	movl	%edx, 8(%esp)
	movl	%ecx, %edx
.L139:
	movl	32(%esp), %ecx
	testl	%ecx, %ecx
	jne	.L208
.L140:
	movl	12(%esp), %eax
	subl	$4, %esp
	.cfi_def_cfa_offset 100
	sall	$3, %eax
	movl	%eax, 32(%esp)
	pushl	%eax
	.cfi_def_cfa_offset 104
	pushl	16(%esp)
	.cfi_def_cfa_offset 108
	movl	28(%esp), %ebp
	pushl	%ebp
	.cfi_def_cfa_offset 112
	movl	40(%esp), %ebx
	call	memcpy@PLT
	movl	12(%edi), %eax
	leal	0(,%esi,4), %ebx
	addl	$16, %esp
	.cfi_def_cfa_offset 96
	movl	(%eax,%ebx), %eax
	testl	%eax, %eax
	je	.L141
	movl	36(%edi), %edx
	movl	40(%edi), %ecx
	movl	%ebx, %eax
	movl	(%ecx,%eax), %eax
	movl	(%edx,%ebx), %ebx
	cmpl	%eax, %ebx
	movl	%ebx, 40(%esp)
	movl	%eax, 36(%esp)
	je	.L142
	movl	32(%esp), %eax
	testl	%eax, %eax
	jne	.L209
.L142:
	movl	56(%edi), %eax
	movl	20(%esp), %ebx
	addl	52(%edi), %ebx
	testl	%eax, %eax
	je	.L147
	testb	$32, 8(%eax)
	je	.L147
	movl	(%edi), %ebp
	testl	%ebp, %ebp
	movl	40(%esp), %ebp
	cmovne	36(%esp), %ebp
	testl	%ebp, %ebp
	movl	%ebp, 36(%esp)
	je	.L147
	movl	(%ebx), %ecx
	movl	(%eax), %ebx
	testl	%ebx, %ebx
	leal	0(,%ecx,4), %edx
	jne	.L149
	addl	36(%eax), %edx
	movl	16(%eax), %eax
	orl	%ebp, (%edx)
.L206:
	subl	$4, %esp
	.cfi_def_cfa_offset 100
	pushl	32(%esp)
	.cfi_def_cfa_offset 104
	pushl	16(%esp)
	.cfi_def_cfa_offset 108
	pushl	(%eax,%ecx,4)
	.cfi_def_cfa_offset 112
	movl	40(%esp), %ebx
	call	memcpy@PLT
	movl	36(%esp), %ebx
	addl	52(%edi), %ebx
	addl	$16, %esp
	.cfi_def_cfa_offset 96
	movl	36(%edi), %edx
	movl	40(%edi), %ecx
	.p2align 4,,10
	.p2align 3
.L147:
	movl	20(%esp), %eax
	movl	$-1, (%edx,%eax)
	movl	$-1, (%ecx,%eax)
	movl	(%ebx), %ecx
.L150:
	addl	$1, %esi
	cmpl	%esi, 4(%edi)
	movl	4(%esp), %eax
	movl	%ecx, 132(%eax)
	jg	.L162
.L137:
	addl	$76, %esp
	.cfi_remember_state
	.cfi_def_cfa_offset 20
	popl	%ebx
	.cfi_restore 3
	.cfi_def_cfa_offset 16
	popl	%esi
	.cfi_restore 6
	.cfi_def_cfa_offset 12
	popl	%edi
	.cfi_restore 7
	.cfi_def_cfa_offset 8
	popl	%ebp
	.cfi_restore 5
	.cfi_def_cfa_offset 4
	ret
	.p2align 4,,10
	.p2align 3
.L141:
	.cfi_restore_state
	movl	28(%edi), %eax
	leal	0(,%esi,4), %ecx
	movl	32(%esp), %ebx
	movl	(%eax,%ecx), %edx
	movl	32(%edi), %eax
	testl	%ebx, %ebx
	movl	(%eax,%ecx), %eax
	movl	%eax, 28(%esp)
	jne	.L210
.L151:
	movl	56(%edi), %ebx
	movl	52(%edi), %eax
	movl	20(%esp), %ecx
	testl	%ebx, %ebx
	movl	(%eax,%ecx), %ecx
	je	.L150
	testb	$32, 8(%ebx)
	je	.L150
	movl	(%edi), %ebp
	movl	24(%edi), %eax
	testl	%ebp, %ebp
	cmovne	28(%esp), %edx
	movl	%edx, 28(%esp)
	movl	20(%esp), %edx
	movl	(%eax,%edx), %eax
	movl	24(%ebx), %edx
	movl	(%edx,%ecx,4), %edx
	movl	%edx, 36(%esp)
	movl	4(%esp), %edx
	movl	8(%edx), %ebp
	movl	(%ebx), %edx
	testl	%edx, %edx
	jne	.L155
	movl	28(%ebx), %edx
	testl	%ebp, %ebp
	movl	(%edx,%ecx,4), %edx
	movl	%edx, 40(%esp)
	movl	16(%ebx), %edx
	movl	(%edx,%ecx,4), %ebx
	movl	%ebx, 44(%esp)
	jle	.L156
	movl	12(%esp), %ecx
	xorl	%ebp, %ebp
	movl	%esi, 56(%esp)
	movl	%edi, 60(%esp)
	movl	%eax, %esi
	movl	%ebp, %edi
	movl	4(%esp), %eax
	leal	(%ebx,%ecx,4), %ecx
	movl	%ecx, 48(%esp)
	jmp	.L158
	.p2align 4,,10
	.p2align 3
.L157:
	addl	$1, %edi
	cmpl	%edi, 8(%eax)
	jle	.L207
.L158:
	movl	%edi, %ebx
	movl	%edi, %ecx
	sarl	$5, %ebx
	andl	$31, %ecx
	movl	(%esi,%ebx,4), %ebp
	btl	%ecx, %ebp
	jnc	.L157
	movl	%eax, 16(%esp)
	movl	12(%esp), %eax
	subl	$4, %esp
	.cfi_def_cfa_offset 100
	leal	(%ebx,%eax), %ebp
	movl	12(%esp), %eax
	movl	(%eax,%ebx,4), %ebx
	movl	(%eax,%ebp,4), %ebp
	shrl	%cl, %ebx
	shrl	%cl, %ebp
	andl	$1, %ebx
	andl	$1, %ebp
	pushl	%ebx
	.cfi_def_cfa_offset 104
	pushl	%edi
	.cfi_def_cfa_offset 108
	pushl	56(%esp)
	.cfi_def_cfa_offset 112
	movl	40(%esp), %ebx
	call	__lhsbsel@PLT
	addl	$12, %esp
	.cfi_def_cfa_offset 100
	pushl	%ebp
	.cfi_def_cfa_offset 104
	pushl	%edi
	.cfi_def_cfa_offset 108
	addl	$1, %edi
	pushl	60(%esp)
	.cfi_def_cfa_offset 112
	movl	40(%esp), %ebx
	call	__lhsbsel@PLT
	addl	$16, %esp
	.cfi_def_cfa_offset 96
	movl	16(%esp), %eax
	cmpl	%edi, 8(%eax)
	jg	.L158
	.p2align 4,,10
	.p2align 3
.L207:
	movl	60(%esp), %edi
	movl	20(%esp), %ecx
	movl	%esi, %eax
	movl	56(%esp), %esi
	movl	52(%edi), %edx
	movl	(%edx,%ecx), %ecx
.L156:
	movl	12(%esp), %edx
	testl	%edx, %edx
	jle	.L150
	movl	%esi, 8(%esp)
	movl	40(%esp), %ebx
	xorl	%edx, %edx
	movl	28(%esp), %ebp
	movl	36(%esp), %esi
	movl	%ecx, 16(%esp)
	movl	12(%esp), %ecx
	movl	%edi, 12(%esp)
	.p2align 4,,10
	.p2align 3
.L161:
	movl	0(%ebp,%edx,4), %edi
	orl	%edi, (%ebx,%edx,4)
	movl	(%eax,%edx,4), %edi
	orl	%edi, (%esi,%edx,4)
	addl	$1, %edx
	cmpl	%edx, %ecx
	jne	.L161
	movl	8(%esp), %esi
	movl	16(%esp), %ecx
	movl	12(%esp), %edi
	jmp	.L150
	.p2align 4,,10
	.p2align 3
.L208:
	movl	12(%esp), %ebx
	pushl	%eax
	.cfi_def_cfa_offset 100
	movl	12(%esp), %eax
	leal	(%edx,%ebx,4), %ecx
	call	asl_loc_combine_xprop_accum
	popl	%eax
	.cfi_def_cfa_offset 96
	jmp	.L140
	.p2align 4,,10
	.p2align 3
.L210:
	movl	4(%esp), %eax
	movl	8(%eax), %ecx
	testl	%ecx, %ecx
	jle	.L151
	movl	16(%esp), %eax
	movl	12(%esp), %ebx
	xorl	%ebp, %ebp
	movl	%edi, 44(%esp)
	movl	28(%esp), %edi
	movl	%esi, 40(%esp)
	movl	%edx, %esi
	leal	(%eax,%ebx,4), %eax
	movl	%eax, 36(%esp)
	.p2align 4,,10
	.p2align 3
.L153:
	movl	%ebp, %eax
	movl	%ebp, %ecx
	sarl	$5, %eax
	andl	$31, %ecx
	movl	(%esi,%eax,4), %ebx
	movl	(%edi,%eax,4), %eax
	shrl	%cl, %ebx
	shrl	%cl, %eax
	andl	$1, %ebx
	andl	$1, %eax
	cmpl	%eax, %ebx
	je	.L152
	subl	$4, %esp
	.cfi_def_cfa_offset 100
	pushl	$1
	.cfi_def_cfa_offset 104
	pushl	%ebp
	.cfi_def_cfa_offset 108
	pushl	28(%esp)
	.cfi_def_cfa_offset 112
	movl	40(%esp), %ebx
	call	__lhsbsel@PLT
	addl	$12, %esp
	.cfi_def_cfa_offset 100
	pushl	$1
	.cfi_def_cfa_offset 104
	pushl	%ebp
	.cfi_def_cfa_offset 108
	pushl	48(%esp)
	.cfi_def_cfa_offset 112
	movl	40(%esp), %ebx
	call	__lhsbsel@PLT
	addl	$16, %esp
	.cfi_def_cfa_offset 96
.L152:
	movl	4(%esp), %eax
	addl	$1, %ebp
	cmpl	%ebp, 8(%eax)
	jg	.L153
	movl	%esi, %edx
	movl	44(%esp), %edi
	movl	40(%esp), %esi
	jmp	.L151
	.p2align 4,,10
	.p2align 3
.L209:
	movl	4(%esp), %ebx
	movl	%ebp, 16(%esp)
	movl	8(%ebx), %eax
	leal	31(%eax), %ebx
	andl	$31, %eax
	sarl	$5, %ebx
	movl	%ebx, 44(%esp)
	leal	-4(,%ebx,4), %ebx
	addl	%ebx, %ebp
	movl	%ebp, 56(%esp)
	movl	52(%esp), %ebp
	movl	0(%ebp,%eax,4), %ebp
	movl	44(%esp), %eax
	testl	%eax, %eax
	movl	%ebp, 48(%esp)
	jle	.L143
	movl	16(%esp), %eax
	movl	28(%esp), %ebp
	leal	4(%eax,%ebx), %ebx
	.p2align 4,,10
	.p2align 3
.L144:
	movl	$-1, (%eax)
	addl	$4, %eax
	cmpl	%eax, %ebx
	jne	.L144
	movl	56(%esp), %eax
	movl	%ebp, 28(%esp)
	movl	48(%esp), %ebx
	movl	16(%esp), %ebp
	andl	%ebx, (%eax)
	movl	12(%esp), %ebx
	leal	0(%ebp,%ebx,4), %eax
	movl	%eax, 56(%esp)
	movl	44(%esp), %eax
	movl	%edx, 44(%esp)
	addl	%ebx, %eax
	movl	%eax, %ebx
	leal	0(%ebp,%eax,4), %eax
	movl	28(%esp), %ebp
	movl	%eax, 12(%esp)
	movl	56(%esp), %eax
	movl	12(%esp), %edx
	.p2align 4,,10
	.p2align 3
.L146:
	movl	$-1, (%eax)
	addl	$4, %eax
	cmpl	%eax, %edx
	jne	.L146
	movl	44(%esp), %edx
	movl	%ebp, 28(%esp)
.L163:
	movl	16(%esp), %eax
	movl	48(%esp), %ebp
	andl	%ebp, -4(%eax,%ebx,4)
	jmp	.L142
	.p2align 4,,10
	.p2align 3
.L155:
	movl	32(%ebx), %edx
	testl	%ebp, %ebp
	movl	(%edx,%ecx,4), %edx
	movl	%edx, 40(%esp)
	movl	20(%ebx), %edx
	movl	(%edx,%ecx,4), %edx
	movl	%edx, 44(%esp)
	jle	.L156
	movl	12(%esp), %ecx
	xorl	%ebp, %ebp
	movl	%esi, 56(%esp)
	movl	%edi, 60(%esp)
	movl	%eax, %esi
	movl	%ebp, %edi
	movl	4(%esp), %eax
	leal	(%edx,%ecx,4), %edx
	movl	%edx, 48(%esp)
	jmp	.L160
	.p2align 4,,10
	.p2align 3
.L159:
	addl	$1, %edi
	cmpl	%edi, 8(%eax)
	jle	.L207
.L160:
	movl	%edi, %ebx
	movl	%edi, %ecx
	sarl	$5, %ebx
	andl	$31, %ecx
	movl	(%esi,%ebx,4), %ebp
	btl	%ecx, %ebp
	jnc	.L159
	movl	%eax, 16(%esp)
	movl	12(%esp), %eax
	subl	$4, %esp
	.cfi_def_cfa_offset 100
	leal	(%ebx,%eax), %ebp
	movl	12(%esp), %eax
	movl	(%eax,%ebx,4), %ebx
	movl	(%eax,%ebp,4), %ebp
	shrl	%cl, %ebx
	shrl	%cl, %ebp
	andl	$1, %ebx
	andl	$1, %ebp
	pushl	%ebx
	.cfi_def_cfa_offset 104
	pushl	%edi
	.cfi_def_cfa_offset 108
	pushl	56(%esp)
	.cfi_def_cfa_offset 112
	movl	40(%esp), %ebx
	call	__lhsbsel@PLT
	addl	$12, %esp
	.cfi_def_cfa_offset 100
	pushl	%ebp
	.cfi_def_cfa_offset 104
	pushl	%edi
	.cfi_def_cfa_offset 108
	pushl	60(%esp)
	.cfi_def_cfa_offset 112
	movl	40(%esp), %ebx
	call	__lhsbsel@PLT
	addl	$16, %esp
	.cfi_def_cfa_offset 96
	movl	16(%esp), %eax
	jmp	.L159
	.p2align 4,,10
	.p2align 3
.L149:
	addl	40(%eax), %edx
	movl	36(%esp), %ebx
	movl	20(%eax), %eax
	orl	%ebx, (%edx)
	jmp	.L206
	.p2align 4,,10
	.p2align 3
.L143:
	movl	56(%esp), %eax
	movl	48(%esp), %ebx
	andl	%ebx, (%eax)
	movl	44(%esp), %eax
	movl	12(%esp), %ebx
	addl	%eax, %ebx
	jmp	.L163
	.cfi_endproc
.LFE270:
	.size	asl_loc_set_restore_xprop_accum_block, .-asl_loc_set_restore_xprop_accum_block
	.p2align 4,,15
	.type	asl_loc_set_restore_xprop_accum_block_selfv, @function
asl_loc_set_restore_xprop_accum_block_selfv:
.LFB271:
	.cfi_startproc
	pushl	%ebp
	.cfi_def_cfa_offset 8
	.cfi_offset 5, -8
	pushl	%edi
	.cfi_def_cfa_offset 12
	.cfi_offset 7, -12
	movl	%eax, %ebp
	pushl	%esi
	.cfi_def_cfa_offset 16
	.cfi_offset 6, -16
	pushl	%ebx
	.cfi_def_cfa_offset 20
	.cfi_offset 3, -20
	call	__x86.get_pc_thunk.si
	addl	$_GLOBAL_OFFSET_TABLE_, %esi
	subl	$92, %esp
	.cfi_def_cfa_offset 112
	movl	4(%ebp), %ecx
	andb	$-33, 8(%ebp)
	movl	%gs:20, %eax
	movl	%eax, 76(%esp)
	xorl	%eax, %eax
	movl	%esi, 12(%esp)
	movl	%edx, 32(%esp)
	testl	%ecx, %ecx
	jle	.L211
	movl	%esi, %eax
	movl	__idp@GOT(%esi), %esi
	movl	$0, 8(%esp)
	movl	__xspi@GOT(%eax), %eax
	movl	%esi, 48(%esp)
	movl	%eax, 44(%esp)
	.p2align 4,,10
	.p2align 3
.L241:
	movl	8(%esp), %ecx
	movl	0(%ebp), %edx
	leal	0(,%ecx,4), %eax
	movl	%eax, 4(%esp)
	movl	44(%ebp), %eax
	movl	(%eax,%ecx,4), %esi
	movl	8(%esi), %eax
	leal	31(%eax), %ebx
	movl	128(%esi), %eax
	sarl	$5, %ebx
	testl	%edx, %edx
	movl	%eax, 24(%esp)
	movl	20(%ebp), %eax
	movl	%ebx, 20(%esp)
	movl	(%eax,%ecx,4), %edi
	movl	16(%ebp), %eax
	movl	(%eax,%ecx,4), %eax
	movl	%eax, 16(%esp)
	je	.L213
	movl	%edi, 16(%esp)
	movl	%eax, %edi
.L213:
	movzbl	6(%esi), %eax
	testb	$4, %al
	je	.L214
	orl	$4, %eax
	movl	4(%esp), %edx
	movb	%al, 6(%esi)
	movl	36(%ebp), %eax
	movl	$1, (%eax,%edx)
	movl	48(%esp), %eax
	movl	24(%esi), %edx
	movl	(%eax), %eax
	leal	(%eax,%edx,4), %edx
	movzbl	1(%esi), %eax
	testb	$126, %al
	je	.L291
	andl	$124, %eax
	cmpb	$4, %al
	je	.L292
	movl	44(%esp), %edx
	movl	(%edx), %eax
	movl	%eax, 28(%esp)
	addl	$1, %eax
	movl	%eax, (%edx)
	movl	12(%esp), %edx
	movl	__maxxnest@GOT(%edx), %edx
	cmpl	(%edx), %eax
	jge	.L293
.L217:
	movl	12(%esp), %edx
	movl	8(%esi), %ecx
	movl	__xstk@GOT(%edx), %edx
	movl	(%edx), %edx
	movl	(%edx,%eax,4), %eax
	leal	31(%ecx), %edx
	sarl	$5, %edx
	cmpl	4(%eax), %edx
	jg	.L294
.L218:
	movl	8(%eax), %ebx
	movl	%eax, 28(%esp)
	subl	$4, %esp
	.cfi_def_cfa_offset 116
	movl	%ecx, (%eax)
	leal	(%ebx,%edx,4), %edx
	movl	%edx, 12(%eax)
	pushl	%esi
	.cfi_def_cfa_offset 120
	pushl	%edx
	.cfi_def_cfa_offset 124
	pushl	%ebx
	.cfi_def_cfa_offset 128
	movl	28(%esp), %ebx
	call	__ld_wire_val_wrds@PLT
	movl	44(%esp), %eax
	movl	12(%eax), %ecx
	movl	8(%eax), %edx
	movl	32(%esp), %eax
	movl	$1, (%esp)
	call	asl_loc_combine_xprop_accum
	movl	60(%esp), %eax
	addl	$16, %esp
	.cfi_def_cfa_offset 112
	subl	$1, (%eax)
.L214:
	movl	32(%esp), %eax
	testl	%eax, %eax
	jne	.L295
.L219:
	movl	20(%esp), %eax
	subl	$4, %esp
	.cfi_def_cfa_offset 116
	sall	$3, %eax
	movl	%eax, 32(%esp)
	pushl	%eax
	.cfi_def_cfa_offset 120
	pushl	24(%esp)
	.cfi_def_cfa_offset 124
	pushl	36(%esp)
	.cfi_def_cfa_offset 128
	movl	28(%esp), %ebx
	call	memcpy@PLT
	addl	$16, %esp
	.cfi_def_cfa_offset 112
	movl	12(%ebp), %eax
	movl	4(%esp), %ebx
	movl	(%eax,%ebx), %eax
	testl	%eax, %eax
	je	.L220
	movl	36(%ebp), %edx
	movl	40(%ebp), %ecx
	movl	%ebx, %eax
	movl	(%ecx,%eax), %eax
	movl	(%edx,%ebx), %ebx
	cmpl	%eax, %ebx
	movl	%ebx, 40(%esp)
	movl	%eax, 36(%esp)
	je	.L221
	testb	$1, 32(%esp)
	jne	.L296
.L221:
	movl	56(%ebp), %eax
	movl	4(%esp), %ebx
	addl	52(%ebp), %ebx
	testl	%eax, %eax
	je	.L226
	testb	$32, 8(%eax)
	je	.L226
	movl	0(%ebp), %edi
	testl	%edi, %edi
	movl	40(%esp), %edi
	cmovne	36(%esp), %edi
	testl	%edi, %edi
	movl	%edi, 36(%esp)
	je	.L226
	movl	(%ebx), %ecx
	movl	(%eax), %ebx
	testl	%ebx, %ebx
	leal	0(,%ecx,4), %edx
	jne	.L228
	addl	36(%eax), %edx
	movl	16(%eax), %eax
	orl	%edi, (%edx)
.L289:
	subl	$4, %esp
	.cfi_def_cfa_offset 116
	pushl	32(%esp)
	.cfi_def_cfa_offset 120
	pushl	24(%esp)
	.cfi_def_cfa_offset 124
	pushl	(%eax,%ecx,4)
	.cfi_def_cfa_offset 128
	movl	28(%esp), %ebx
	call	memcpy@PLT
	movl	20(%esp), %ebx
	addl	52(%ebp), %ebx
	addl	$16, %esp
	.cfi_def_cfa_offset 112
	movl	36(%ebp), %edx
	movl	40(%ebp), %ecx
	.p2align 4,,10
	.p2align 3
.L226:
	movl	4(%esp), %eax
	movl	$-1, (%edx,%eax)
	movl	$-1, (%ecx,%eax)
	movl	(%ebx), %ecx
.L229:
	addl	$1, 8(%esp)
	movl	%ecx, 132(%esi)
	movl	8(%esp), %eax
	cmpl	%eax, 4(%ebp)
	jg	.L241
.L211:
	movl	76(%esp), %eax
	xorl	%gs:20, %eax
	jne	.L297
	addl	$92, %esp
	.cfi_remember_state
	.cfi_def_cfa_offset 20
	popl	%ebx
	.cfi_restore 3
	.cfi_def_cfa_offset 16
	popl	%esi
	.cfi_restore 6
	.cfi_def_cfa_offset 12
	popl	%edi
	.cfi_restore 7
	.cfi_def_cfa_offset 8
	popl	%ebp
	.cfi_restore 5
	.cfi_def_cfa_offset 4
	ret
	.p2align 4,,10
	.p2align 3
.L220:
	.cfi_restore_state
	movl	28(%ebp), %eax
	movl	4(%esp), %edi
	movl	32(%esp), %ebx
	movl	(%eax,%edi), %edx
	movl	32(%ebp), %eax
	testl	%ebx, %ebx
	movl	(%eax,%edi), %eax
	movl	%eax, 28(%esp)
	jne	.L298
.L230:
	movl	56(%ebp), %ebx
	movl	52(%ebp), %eax
	movl	4(%esp), %edi
	testl	%ebx, %ebx
	movl	(%eax,%edi), %ecx
	je	.L229
	testb	$32, 8(%ebx)
	je	.L229
	movl	0(%ebp), %eax
	testl	%eax, %eax
	cmovne	28(%esp), %edx
	movl	24(%ebp), %eax
	movl	(%eax,%edi), %eax
	movl	%edx, 28(%esp)
	movl	24(%ebx), %edx
	movl	(%edx,%ecx,4), %edi
	movl	(%ebx), %edx
	testl	%edx, %edx
	movl	%edi, 24(%esp)
	movl	8(%esi), %edi
	jne	.L234
	movl	28(%ebx), %edx
	testl	%edi, %edi
	movl	(%edx,%ecx,4), %edx
	movl	%edx, 36(%esp)
	movl	16(%ebx), %edx
	movl	(%edx,%ecx,4), %edx
	movl	%edx, 40(%esp)
	jle	.L235
	movl	20(%esp), %edi
	movl	%ebp, 56(%esp)
	movl	%eax, %ebp
	movl	16(%esp), %eax
	leal	(%edx,%edi,4), %edi
	movl	%edi, 52(%esp)
	xorl	%edi, %edi
	jmp	.L237
	.p2align 4,,10
	.p2align 3
.L236:
	addl	$1, %edi
	cmpl	%edi, 8(%esi)
	jle	.L290
.L237:
	movl	%edi, %edx
	movl	%edi, %ecx
	sarl	$5, %edx
	andl	$31, %ecx
	movl	0(%ebp,%edx,4), %ebx
	btl	%ecx, %ebx
	jnc	.L236
	movl	(%eax,%edx,4), %ebx
	addl	20(%esp), %edx
	subl	$4, %esp
	.cfi_def_cfa_offset 116
	movl	%eax, 20(%esp)
	shrl	%cl, %ebx
	andl	$1, %ebx
	movl	%ebx, 72(%esp)
	movl	(%eax,%edx,4), %edx
	shrl	%cl, %edx
	andl	$1, %edx
	movl	%edx, 76(%esp)
	pushl	%ebx
	.cfi_def_cfa_offset 120
	pushl	%edi
	.cfi_def_cfa_offset 124
	pushl	52(%esp)
	.cfi_def_cfa_offset 128
	movl	28(%esp), %ebx
	call	__lhsbsel@PLT
	addl	$12, %esp
	.cfi_def_cfa_offset 116
	pushl	76(%esp)
	.cfi_def_cfa_offset 120
	pushl	%edi
	.cfi_def_cfa_offset 124
	addl	$1, %edi
	pushl	64(%esp)
	.cfi_def_cfa_offset 128
	movl	28(%esp), %ebx
	call	__lhsbsel@PLT
	addl	$16, %esp
	.cfi_def_cfa_offset 112
	cmpl	%edi, 8(%esi)
	movl	16(%esp), %eax
	jg	.L237
	.p2align 4,,10
	.p2align 3
.L290:
	movl	%ebp, %eax
	movl	56(%esp), %ebp
	movl	4(%esp), %edi
	movl	52(%ebp), %edx
	movl	(%edx,%edi), %ecx
.L235:
	movl	20(%esp), %edx
	testl	%edx, %edx
	jle	.L229
	movl	%esi, 4(%esp)
	movl	36(%esp), %ebx
	xorl	%edx, %edx
	movl	28(%esp), %edi
	movl	24(%esp), %esi
	movl	%ecx, 16(%esp)
	movl	20(%esp), %ecx
	movl	%ebp, 20(%esp)
	.p2align 4,,10
	.p2align 3
.L240:
	movl	(%edi,%edx,4), %ebp
	orl	%ebp, (%ebx,%edx,4)
	movl	(%eax,%edx,4), %ebp
	orl	%ebp, (%esi,%edx,4)
	addl	$1, %edx
	cmpl	%edx, %ecx
	jne	.L240
	movl	4(%esp), %esi
	movl	16(%esp), %ecx
	movl	20(%esp), %ebp
	jmp	.L229
	.p2align 4,,10
	.p2align 3
.L295:
	movl	20(%esp), %eax
	subl	$12, %esp
	.cfi_def_cfa_offset 124
	pushl	8(%esi)
	.cfi_def_cfa_offset 128
	movl	%edi, %edx
	leal	(%edi,%eax,4), %ecx
	movl	32(%esp), %eax
	call	asl_loc_combine_xprop_accum
	addl	$16, %esp
	.cfi_def_cfa_offset 112
	jmp	.L219
	.p2align 4,,10
	.p2align 3
.L298:
	movl	8(%esi), %ecx
	testl	%ecx, %ecx
	jle	.L230
	movl	20(%esp), %edi
	movl	24(%esp), %eax
	movl	%ebp, 40(%esp)
	movl	%edx, %ebp
	leal	(%eax,%edi,4), %eax
	xorl	%edi, %edi
	movl	%eax, 36(%esp)
	.p2align 4,,10
	.p2align 3
.L232:
	movl	28(%esp), %edx
	movl	%edi, %eax
	movl	%edi, %ecx
	sarl	$5, %eax
	andl	$31, %ecx
	movl	0(%ebp,%eax,4), %ebx
	movl	(%edx,%eax,4), %eax
	shrl	%cl, %ebx
	shrl	%cl, %eax
	andl	$1, %ebx
	andl	$1, %eax
	cmpl	%eax, %ebx
	je	.L231
	subl	$4, %esp
	.cfi_def_cfa_offset 116
	pushl	$1
	.cfi_def_cfa_offset 120
	pushl	%edi
	.cfi_def_cfa_offset 124
	pushl	36(%esp)
	.cfi_def_cfa_offset 128
	movl	28(%esp), %ebx
	call	__lhsbsel@PLT
	addl	$12, %esp
	.cfi_def_cfa_offset 116
	pushl	$1
	.cfi_def_cfa_offset 120
	pushl	%edi
	.cfi_def_cfa_offset 124
	pushl	48(%esp)
	.cfi_def_cfa_offset 128
	movl	28(%esp), %ebx
	call	__lhsbsel@PLT
	addl	$16, %esp
	.cfi_def_cfa_offset 112
.L231:
	addl	$1, %edi
	cmpl	%edi, 8(%esi)
	jg	.L232
	movl	%ebp, %edx
	movl	40(%esp), %ebp
	jmp	.L230
	.p2align 4,,10
	.p2align 3
.L291:
	movl	20(%esp), %eax
	pushl	8(%esi)
	.cfi_def_cfa_offset 116
	leal	(%edx,%eax,4), %ecx
	movl	20(%esp), %eax
	call	asl_loc_combine_xprop_accum
	popl	%eax
	.cfi_def_cfa_offset 112
	jmp	.L214
	.p2align 4,,10
	.p2align 3
.L296:
	movl	8(%esi), %eax
	leal	31(%eax), %ebx
	andl	$31, %eax
	movl	%ebx, %edi
	movl	12(%esp), %ebx
	sarl	$5, %edi
	movl	%edi, 56(%esp)
	movl	__masktab@GOT(%ebx), %ebx
	movl	(%ebx,%eax,4), %eax
	movl	24(%esp), %ebx
	movl	%eax, 52(%esp)
	leal	-4(,%edi,4), %eax
	addl	%eax, %ebx
	testl	%edi, %edi
	movl	%ebx, 60(%esp)
	jle	.L222
	movl	24(%esp), %edi
	leal	4(%edi,%eax), %ebx
	movl	%edi, %eax
	movl	28(%esp), %edi
	.p2align 4,,10
	.p2align 3
.L223:
	movl	$-1, (%eax)
	addl	$4, %eax
	cmpl	%eax, %ebx
	jne	.L223
	movl	60(%esp), %eax
	movl	%edi, 28(%esp)
	movl	52(%esp), %edi
	movl	24(%esp), %ebx
	andl	%edi, (%eax)
	movl	56(%esp), %edi
	addl	20(%esp), %edi
	movl	20(%esp), %eax
	leal	(%ebx,%eax,4), %eax
	movl	%edi, 20(%esp)
	leal	(%ebx,%edi,4), %ebx
	movl	28(%esp), %edi
	.p2align 4,,10
	.p2align 3
.L225:
	movl	$-1, (%eax)
	addl	$4, %eax
	cmpl	%eax, %ebx
	jne	.L225
	movl	%edi, 28(%esp)
.L242:
	movl	24(%esp), %eax
	movl	20(%esp), %edi
	movl	52(%esp), %ebx
	andl	%ebx, -4(%eax,%edi,4)
	jmp	.L221
	.p2align 4,,10
	.p2align 3
.L292:
	movl	(%edx), %eax
	leal	72(%esp), %ecx
	movl	%eax, %edx
	shrl	%eax
	andl	$1, %edx
	andl	$1, %eax
	movl	%edx, 68(%esp)
	movl	%eax, 72(%esp)
	leal	68(%esp), %edx
	pushl	$1
	.cfi_def_cfa_offset 116
	movl	20(%esp), %eax
	call	asl_loc_combine_xprop_accum
	popl	%eax
	.cfi_def_cfa_offset 112
	jmp	.L214
	.p2align 4,,10
	.p2align 3
.L234:
	movl	32(%ebx), %edx
	testl	%edi, %edi
	movl	(%edx,%ecx,4), %edx
	movl	%edx, 36(%esp)
	movl	20(%ebx), %edx
	movl	(%edx,%ecx,4), %edx
	movl	%edx, 40(%esp)
	jle	.L235
	movl	20(%esp), %edi
	movl	%ebp, 56(%esp)
	movl	%eax, %ebp
	movl	16(%esp), %eax
	leal	(%edx,%edi,4), %edi
	movl	%edi, 52(%esp)
	xorl	%edi, %edi
	jmp	.L239
	.p2align 4,,10
	.p2align 3
.L238:
	addl	$1, %edi
	cmpl	%edi, 8(%esi)
	jle	.L290
.L239:
	movl	%edi, %edx
	movl	%edi, %ecx
	sarl	$5, %edx
	andl	$31, %ecx
	movl	0(%ebp,%edx,4), %ebx
	btl	%ecx, %ebx
	jnc	.L238
	movl	(%eax,%edx,4), %ebx
	addl	20(%esp), %edx
	subl	$4, %esp
	.cfi_def_cfa_offset 116
	movl	%eax, 20(%esp)
	shrl	%cl, %ebx
	andl	$1, %ebx
	movl	%ebx, 72(%esp)
	movl	(%eax,%edx,4), %edx
	shrl	%cl, %edx
	andl	$1, %edx
	movl	%edx, 76(%esp)
	pushl	%ebx
	.cfi_def_cfa_offset 120
	pushl	%edi
	.cfi_def_cfa_offset 124
	pushl	52(%esp)
	.cfi_def_cfa_offset 128
	movl	28(%esp), %ebx
	call	__lhsbsel@PLT
	addl	$12, %esp
	.cfi_def_cfa_offset 116
	pushl	76(%esp)
	.cfi_def_cfa_offset 120
	pushl	%edi
	.cfi_def_cfa_offset 124
	pushl	64(%esp)
	.cfi_def_cfa_offset 128
	movl	28(%esp), %ebx
	call	__lhsbsel@PLT
	addl	$16, %esp
	.cfi_def_cfa_offset 112
	movl	16(%esp), %eax
	jmp	.L238
	.p2align 4,,10
	.p2align 3
.L294:
	subl	$8, %esp
	.cfi_def_cfa_offset 120
	pushl	%edx
	.cfi_def_cfa_offset 124
	pushl	%eax
	.cfi_def_cfa_offset 128
	movl	28(%esp), %ebx
	movl	%eax, 44(%esp)
	call	__chg_xstk_width@PLT
	movl	8(%esi), %ecx
	addl	$16, %esp
	.cfi_def_cfa_offset 112
	movl	28(%esp), %eax
	leal	31(%ecx), %edx
	sarl	$5, %edx
	jmp	.L218
	.p2align 4,,10
	.p2align 3
.L293:
	movl	12(%esp), %ebx
	call	__grow_xstk@PLT
	movl	44(%esp), %eax
	movl	(%eax), %eax
	jmp	.L217
	.p2align 4,,10
	.p2align 3
.L228:
	addl	40(%eax), %edx
	movl	36(%esp), %edi
	movl	20(%eax), %eax
	orl	%edi, (%edx)
	jmp	.L289
	.p2align 4,,10
	.p2align 3
.L222:
	movl	60(%esp), %eax
	movl	52(%esp), %edi
	andl	%edi, (%eax)
	movl	20(%esp), %edi
	movl	56(%esp), %eax
	addl	%edi, %eax
	movl	%eax, 20(%esp)
	jmp	.L242
.L297:
	call	__stack_chk_fail_local
	.cfi_endproc
.LFE271:
	.size	asl_loc_set_restore_xprop_accum_block_selfv, .-asl_loc_set_restore_xprop_accum_block_selfv
	.section	.rodata.str1.4
	.align 4
.LC1:
	.string	"error in conversion of real %g to 64 bit time - set to %s"
	.align 4
.LC2:
	.string	"delay expression #(%s) evaluates to x/z changed to #0"
	.text
	.p2align 4,,15
	.type	asl_loc_delx_to_deltim, @function
asl_loc_delx_to_deltim:
.LFB456:
	.cfi_startproc
	pushl	%ebp
	.cfi_def_cfa_offset 8
	.cfi_offset 5, -8
	pushl	%edi
	.cfi_def_cfa_offset 12
	.cfi_offset 7, -12
	pushl	%esi
	.cfi_def_cfa_offset 16
	.cfi_offset 6, -16
	pushl	%ebx
	.cfi_def_cfa_offset 20
	.cfi_offset 3, -20
	call	__x86.get_pc_thunk.bx
	addl	$_GLOBAL_OFFSET_TABLE_, %ebx
	subl	$44, %esp
	.cfi_def_cfa_offset 64
	movl	__idp@GOT(%ebx), %ecx
	movl	%gs:20, %edi
	movl	%edi, 28(%esp)
	xorl	%edi, %edi
	testb	$8, 2(%eax)
	movl	(%ecx), %ecx
	movl	4(%ecx), %ecx
	jne	.L309
	movl	12(%edx), %esi
	movl	(%esi), %esi
	testl	%esi, %esi
	jne	.L310
	cmpl	$32, (%edx)
	movl	8(%edx), %esi
	movl	(%esi), %eax
	jg	.L305
	xorl	%edx, %edx
.L306:
	testb	$2, 3(%ecx)
	jne	.L299
	movzbl	2(%ecx), %ecx
	movl	__itoticks_tab@GOT(%ebx), %esi
	shrb	%cl
	movl	%ecx, %edi
	movl	__des_timeprec@GOT(%ebx), %ecx
	andl	$15, %edi
	movl	(%ecx), %ecx
	subl	%edi, %ecx
	movl	(%esi,%ecx,8), %ebx
	imull	%edx, %ebx
	movl	4(%esi,%ecx,8), %edx
	imull	%eax, %edx
	addl	%edx, %ebx
	mull	(%esi,%ecx,8)
	addl	%ebx, %edx
.L299:
	movl	28(%esp), %edi
	xorl	%gs:20, %edi
	jne	.L311
	addl	$44, %esp
	.cfi_remember_state
	.cfi_def_cfa_offset 20
	popl	%ebx
	.cfi_restore 3
	.cfi_def_cfa_offset 16
	popl	%esi
	.cfi_restore 6
	.cfi_def_cfa_offset 12
	popl	%edi
	.cfi_restore 7
	.cfi_def_cfa_offset 8
	popl	%ebp
	.cfi_restore 5
	.cfi_def_cfa_offset 4
	ret
	.p2align 4,,10
	.p2align 3
.L310:
	.cfi_restore_state
	subl	$8, %esp
	.cfi_def_cfa_offset 72
	pushl	%eax
	.cfi_def_cfa_offset 76
	movl	__xs@GOT(%ebx), %eax
	pushl	(%eax)
	.cfi_def_cfa_offset 80
	call	__msgexpr_tostr@PLT
	addl	$12, %esp
	.cfi_def_cfa_offset 68
	pushl	%eax
	.cfi_def_cfa_offset 72
	leal	.LC2@GOTOFF(%ebx), %eax
	pushl	%eax
	.cfi_def_cfa_offset 76
	pushl	$565
	.cfi_def_cfa_offset 80
	call	__sgfwarn@PLT
	addl	$16, %esp
	.cfi_def_cfa_offset 64
	xorl	%eax, %eax
	xorl	%edx, %edx
	jmp	.L299
	.p2align 4,,10
	.p2align 3
.L309:
	movl	8(%edx), %eax
	testb	$2, 3(%ecx)
	fldl	(%eax)
	fstl	8(%esp)
	jne	.L313
	movzbl	2(%ecx), %eax
	movl	__des_timeprec@GOT(%ebx), %edx
	movl	(%edx), %edx
	shrb	%al
	andl	$15, %eax
	subl	%eax, %edx
	movl	%edx, %eax
	movl	__dbl_toticks_tab@GOT(%ebx), %edx
	fmull	(%edx,%eax,8)
	fstpl	8(%esp)
	jmp	.L301
	.p2align 4,,10
	.p2align 3
.L313:
	fstp	%st(0)
.L301:
	subl	$4, %esp
	.cfi_def_cfa_offset 68
	pushl	16(%esp)
	.cfi_def_cfa_offset 72
	pushl	16(%esp)
	.cfi_def_cfa_offset 76
	leal	28(%esp), %esi
	pushl	%esi
	.cfi_def_cfa_offset 80
	call	__real_to_v64tim@PLT
	addl	$16, %esp
	.cfi_def_cfa_offset 64
	testl	%eax, %eax
	je	.L312
	movl	16(%esp), %eax
	movl	20(%esp), %edx
	jmp	.L299
	.p2align 4,,10
	.p2align 3
.L305:
	movl	(%esi), %eax
	movl	4(%esi), %edx
	jmp	.L306
	.p2align 4,,10
	.p2align 3
.L312:
	movl	__xs@GOT(%ebx), %eax
	subl	$8, %esp
	.cfi_def_cfa_offset 72
	pushl	%esi
	.cfi_def_cfa_offset 76
	pushl	(%eax)
	.cfi_def_cfa_offset 80
	call	__to_timstr@PLT
	movl	%eax, (%esp)
	leal	.LC1@GOTOFF(%ebx), %eax
	pushl	28(%esp)
	.cfi_def_cfa_offset 84
	pushl	28(%esp)
	.cfi_def_cfa_offset 88
	pushl	%eax
	.cfi_def_cfa_offset 92
	pushl	$563
	.cfi_def_cfa_offset 96
	call	__sgfwarn@PLT
	addl	$32, %esp
	.cfi_def_cfa_offset 64
	movl	16(%esp), %eax
	movl	20(%esp), %edx
	jmp	.L299
.L311:
	call	__stack_chk_fail_local
	.cfi_endproc
.LFE456:
	.size	asl_loc_delx_to_deltim, .-asl_loc_delx_to_deltim
	.p2align 4,,15
	.type	linkout_cur_time, @function
linkout_cur_time:
.LFB356:
	.cfi_startproc
	call	__x86.get_pc_thunk.dx
	addl	$_GLOBAL_OFFSET_TABLE_, %edx
	pushl	%esi
	.cfi_def_cfa_offset 8
	.cfi_offset 6, -8
	pushl	%ebx
	.cfi_def_cfa_offset 12
	.cfi_offset 3, -12
	movl	__cur_te_endp@GOT(%edx), %ebx
	movl	$0, 8(%eax)
	movl	(%ebx), %ecx
	testl	%ecx, %ecx
	je	.L329
	movl	48(%eax), %edx
	testl	%edx, %edx
	je	.L330
	movl	44(%eax), %esi
	testl	%esi, %esi
	je	.L331
	movl	%esi, 44(%edx)
	movl	44(%eax), %esi
	cmpl	%eax, %ecx
	movl	%edx, 48(%esi)
	jne	.L314
	movl	48(%ecx), %eax
	movl	%eax, (%ebx)
.L314:
	popl	%ebx
	.cfi_remember_state
	.cfi_restore 3
	.cfi_def_cfa_offset 8
	popl	%esi
	.cfi_restore 6
	.cfi_def_cfa_offset 4
	ret
	.p2align 4,,10
	.p2align 3
.L330:
	.cfi_restore_state
	cmpl	%eax, %ecx
	je	.L332
	movl	44(%eax), %eax
	testl	%eax, %eax
	je	.L314
	movl	$0, 48(%eax)
	popl	%ebx
	.cfi_remember_state
	.cfi_restore 3
	.cfi_def_cfa_offset 8
	popl	%esi
	.cfi_restore 6
	.cfi_def_cfa_offset 4
	ret
	.p2align 4,,10
	.p2align 3
.L331:
	.cfi_restore_state
	movl	%edx, (%ebx)
	movl	$0, 44(%edx)
	popl	%ebx
	.cfi_remember_state
	.cfi_restore 3
	.cfi_def_cfa_offset 8
	popl	%esi
	.cfi_restore 6
	.cfi_def_cfa_offset 4
	ret
	.p2align 4,,10
	.p2align 3
.L332:
	.cfi_restore_state
	movl	$0, (%ebx)
	jmp	.L314
	.p2align 4,,10
	.p2align 3
.L329:
	movl	__p0_te_hdrp@GOT(%edx), %esi
	cmpl	(%esi), %eax
	je	.L333
.L316:
	movl	48(%eax), %ecx
	movl	44(%eax), %ebx
	testl	%ecx, %ecx
	je	.L334
	testl	%ebx, %ebx
	je	.L335
	movl	__p0_te_endp@GOT(%edx), %edx
	movl	%ebx, 44(%ecx)
	movl	44(%eax), %ebx
	cmpl	(%edx), %eax
	movl	%ecx, 48(%ebx)
	jne	.L314
	movl	48(%eax), %eax
	movl	%eax, (%edx)
	jmp	.L314
	.p2align 4,,10
	.p2align 3
.L333:
	movl	__p0_te_endp@GOT(%edx), %ecx
	cmpl	(%ecx), %eax
	jne	.L316
	movl	$0, (%ecx)
	movl	$0, (%esi)
	jmp	.L314
	.p2align 4,,10
	.p2align 3
.L334:
	testl	%ebx, %ebx
	movl	%ebx, (%esi)
	je	.L314
	movl	$0, 48(%ebx)
	jmp	.L314
	.p2align 4,,10
	.p2align 3
.L335:
	movl	__p0_te_endp@GOT(%edx), %eax
	movl	$0, 44(%ecx)
	movl	%ecx, (%eax)
	jmp	.L314
	.cfi_endproc
.LFE356:
	.size	linkout_cur_time, .-linkout_cur_time
	.p2align 4,,15
	.type	linkout_tevp, @function
linkout_tevp:
.LFB355:
	.cfi_startproc
	pushl	%esi
	.cfi_def_cfa_offset 8
	.cfi_offset 6, -8
	pushl	%ebx
	.cfi_def_cfa_offset 12
	.cfi_offset 3, -12
	call	__x86.get_pc_thunk.bx
	addl	$_GLOBAL_OFFSET_TABLE_, %ebx
	subl	$4, %esp
	.cfi_def_cfa_offset 16
	movl	24(%eax), %edx
	movl	28(%eax), %ecx
	movl	__simtime@GOT(%ebx), %esi
	xorl	(%esi), %edx
	xorl	4(%esi), %ecx
	orl	%edx, %ecx
	je	.L343
	movl	20(%eax), %esi
	movl	$0, 8(%eax)
	movl	$0, 20(%eax)
	cmpl	%eax, 12(%esi)
	je	.L344
.L338:
	movl	48(%eax), %edx
	movl	44(%eax), %ecx
	testl	%edx, %edx
	je	.L345
	testl	%ecx, %ecx
	je	.L346
	movl	%ecx, 44(%edx)
	movl	44(%eax), %eax
	movl	%edx, 48(%eax)
.L336:
	addl	$4, %esp
	.cfi_remember_state
	.cfi_def_cfa_offset 12
	popl	%ebx
	.cfi_restore 3
	.cfi_def_cfa_offset 8
	popl	%esi
	.cfi_restore 6
	.cfi_def_cfa_offset 4
	ret
	.p2align 4,,10
	.p2align 3
.L344:
	.cfi_restore_state
	cmpl	%eax, 16(%esi)
	jne	.L338
	call	asl_loc_get_new_event
	movl	__process_cancel_ev_enterp@GOT(%ebx), %edx
	movl	(%edx), %edx
	movl	%edx, 12(%eax)
	movl	%eax, 16(%esi)
	movl	%eax, 12(%esi)
	jmp	.L336
	.p2align 4,,10
	.p2align 3
.L345:
	movl	%ecx, 12(%esi)
	movl	$0, 48(%ecx)
	addl	$4, %esp
	.cfi_remember_state
	.cfi_def_cfa_offset 12
	popl	%ebx
	.cfi_restore 3
	.cfi_def_cfa_offset 8
	popl	%esi
	.cfi_restore 6
	.cfi_def_cfa_offset 4
	ret
	.p2align 4,,10
	.p2align 3
.L346:
	.cfi_restore_state
	movl	%edx, 16(%esi)
	movl	$0, 44(%edx)
	addl	$4, %esp
	.cfi_remember_state
	.cfi_def_cfa_offset 12
	popl	%ebx
	.cfi_restore 3
	.cfi_def_cfa_offset 8
	popl	%esi
	.cfi_restore 6
	.cfi_def_cfa_offset 4
	ret
	.p2align 4,,10
	.p2align 3
.L343:
	.cfi_restore_state
	addl	$4, %esp
	.cfi_def_cfa_offset 12
	popl	%ebx
	.cfi_restore 3
	.cfi_def_cfa_offset 8
	popl	%esi
	.cfi_restore 6
	.cfi_def_cfa_offset 4
	jmp	linkout_cur_time
	.cfi_endproc
.LFE355:
	.size	linkout_tevp, .-linkout_tevp
	.section	.rodata.str1.1,"aMS",@progbits,1
.LC3:
	.string	"v_aslib.c"
	.text
	.p2align 4,,15
	.type	set_trchan_1vtx_nchg_fld, @function
set_trchan_1vtx_nchg_fld:
.LFB105:
	.cfi_startproc
	pushl	%ebp
	.cfi_def_cfa_offset 8
	.cfi_offset 5, -8
	pushl	%edi
	.cfi_def_cfa_offset 12
	.cfi_offset 7, -12
	pushl	%esi
	.cfi_def_cfa_offset 16
	.cfi_offset 6, -16
	pushl	%ebx
	.cfi_def_cfa_offset 20
	.cfi_offset 3, -20
	call	__x86.get_pc_thunk.bx
	addl	$_GLOBAL_OFFSET_TABLE_, %ebx
	subl	$12, %esp
	.cfi_def_cfa_offset 32
	movl	(%ecx), %esi
	leal	(%esi,%esi,4), %ebp
	movl	__chantab@GOT(%ebx), %esi
	sall	$2, %ebp
	addl	(%esi), %ebp
	testb	$16, 0(%ebp)
	je	.L357
.L347:
	addl	$12, %esp
	.cfi_remember_state
	.cfi_def_cfa_offset 20
	popl	%ebx
	.cfi_restore 3
	.cfi_def_cfa_offset 16
	popl	%esi
	.cfi_restore 6
	.cfi_def_cfa_offset 12
	popl	%edi
	.cfi_restore 7
	.cfi_def_cfa_offset 8
	popl	%ebp
	.cfi_restore 5
	.cfi_def_cfa_offset 4
	ret
	.p2align 4,,10
	.p2align 3
.L357:
	.cfi_restore_state
	subl	$12, %esp
	.cfi_def_cfa_offset 44
	movl	%ecx, %esi
	movl	%edx, %edi
	pushl	%eax
	.cfi_def_cfa_offset 48
	movl	%eax, %ebp
	call	__needs_netchg_record@PLT
	addl	$16, %esp
	.cfi_def_cfa_offset 32
	testl	%eax, %eax
	je	.L347
	subl	$4, %esp
	.cfi_def_cfa_offset 36
	movl	4(%esi), %esi
	pushl	%edi
	.cfi_def_cfa_offset 40
	pushl	%edi
	.cfi_def_cfa_offset 44
	pushl	%ebp
	.cfi_def_cfa_offset 48
	call	__find_nchg_range@PLT
	addl	$16, %esp
	.cfi_def_cfa_offset 32
	cmpl	12(%esi), %ebp
	movl	%eax, %edi
	je	.L351
	leal	.LC3@GOTOFF(%ebx), %eax
	subl	$8, %esp
	.cfi_def_cfa_offset 40
	pushl	$1213
	.cfi_def_cfa_offset 44
	pushl	%eax
	.cfi_def_cfa_offset 48
	call	__misc_terr@PLT
	addl	$16, %esp
	.cfi_def_cfa_offset 32
.L351:
	testl	%edi, %edi
	je	.L358
.L352:
	movl	16(%edi), %edx
	movl	32(%esp), %eax
	movl	(%eax,%edx,4), %eax
	movl	%eax, 8(%esi)
	addl	$12, %esp
	.cfi_remember_state
	.cfi_def_cfa_offset 20
	popl	%ebx
	.cfi_restore 3
	.cfi_def_cfa_offset 16
	popl	%esi
	.cfi_restore 6
	.cfi_def_cfa_offset 12
	popl	%edi
	.cfi_restore 7
	.cfi_def_cfa_offset 8
	popl	%ebp
	.cfi_restore 5
	.cfi_def_cfa_offset 4
	ret
	.p2align 4,,10
	.p2align 3
.L358:
	.cfi_restore_state
	leal	.LC3@GOTOFF(%ebx), %eax
	subl	$8, %esp
	.cfi_def_cfa_offset 40
	pushl	$1214
	.cfi_def_cfa_offset 44
	pushl	%eax
	.cfi_def_cfa_offset 48
	call	__misc_terr@PLT
	addl	$16, %esp
	.cfi_def_cfa_offset 32
	jmp	.L352
	.cfi_endproc
.LFE105:
	.size	set_trchan_1vtx_nchg_fld, .-set_trchan_1vtx_nchg_fld
	.p2align 4,,15
	.type	asl_loc_get_impth_del.isra.4, @function
asl_loc_get_impth_del.isra.4:
.LFB512:
	.cfi_startproc
	pushl	%ebp
	.cfi_def_cfa_offset 8
	.cfi_offset 5, -8
	pushl	%edi
	.cfi_def_cfa_offset 12
	.cfi_offset 7, -12
	pushl	%esi
	.cfi_def_cfa_offset 16
	.cfi_offset 6, -16
	pushl	%ebx
	.cfi_def_cfa_offset 20
	.cfi_offset 3, -20
	call	__x86.get_pc_thunk.bx
	addl	$_GLOBAL_OFFSET_TABLE_, %ebx
	subl	$52, %esp
	.cfi_def_cfa_offset 72
	movl	%eax, 36(%esp)
	movl	__idp@GOT(%ebx), %eax
	movl	(%eax), %eax
	movl	(%eax), %eax
	movl	(%edx,%eax,4), %esi
	movl	20(%esi), %eax
	movl	24(%esi), %edx
	movl	%eax, 16(%esp)
	movzbl	(%esi), %eax
	movl	%edx, 20(%esp)
	pushl	%eax
	.cfi_def_cfa_offset 76
	pushl	8(%esi)
	.cfi_def_cfa_offset 80
	call	__get_del@PLT
	movl	28(%esi), %esi
	movl	__pdmindel@GOT(%ebx), %ecx
	addl	$16, %esp
	.cfi_def_cfa_offset 64
	testl	%esi, %esi
	movl	%eax, (%ecx)
	movl	%edx, 4(%ecx)
	je	.L371
	.p2align 4,,10
	.p2align 3
.L360:
	movl	24(%esi), %edi
	movl	12(%esp), %edx
	movl	20(%esi), %ebp
	movl	8(%esp), %eax
	cmpl	%edx, %edi
	jb	.L362
	ja	.L366
	cmpl	%eax, %ebp
	jb	.L362
.L366:
	movzbl	(%esi), %eax
	movl	%ecx, 20(%esp)
	subl	$8, %esp
	.cfi_def_cfa_offset 72
	pushl	%eax
	.cfi_def_cfa_offset 76
	pushl	8(%esi)
	.cfi_def_cfa_offset 80
	call	__get_del@PLT
	movl	%eax, 40(%esp)
	addl	$16, %esp
	.cfi_def_cfa_offset 64
	movl	8(%esp), %ecx
	movl	12(%esp), %eax
	xorl	%ebp, %ecx
	xorl	%edi, %eax
	orl	%ecx, %eax
	movl	20(%esp), %ecx
	je	.L372
.L364:
	movl	24(%esp), %eax
	movl	%edx, 4(%ecx)
	movl	%ebp, 8(%esp)
	movl	%edi, 12(%esp)
	movl	%eax, (%ecx)
.L362:
	movl	28(%esi), %esi
	testl	%esi, %esi
	jne	.L360
	movl	8(%esp), %eax
	addl	(%ecx), %eax
	movl	12(%esp), %edx
	adcl	4(%ecx), %edx
	movl	28(%esp), %ebx
	movl	%eax, (%ebx)
	movl	%edx, 4(%ebx)
	addl	$44, %esp
	.cfi_remember_state
	.cfi_def_cfa_offset 20
	popl	%ebx
	.cfi_restore 3
	.cfi_def_cfa_offset 16
	popl	%esi
	.cfi_restore 6
	.cfi_def_cfa_offset 12
	popl	%edi
	.cfi_restore 7
	.cfi_def_cfa_offset 8
	popl	%ebp
	.cfi_restore 5
	.cfi_def_cfa_offset 4
	ret
	.p2align 4,,10
	.p2align 3
.L372:
	.cfi_restore_state
	cmpl	4(%ecx), %edx
	ja	.L362
	jb	.L364
	movl	24(%esp), %eax
	cmpl	(%ecx), %eax
	ja	.L362
	jmp	.L364
	.p2align 4,,10
	.p2align 3
.L371:
	addl	8(%esp), %eax
	movl	28(%esp), %ebx
	adcl	12(%esp), %edx
	movl	%eax, (%ebx)
	movl	%edx, 4(%ebx)
	addl	$44, %esp
	.cfi_def_cfa_offset 20
	popl	%ebx
	.cfi_restore 3
	.cfi_def_cfa_offset 16
	popl	%esi
	.cfi_restore 6
	.cfi_def_cfa_offset 12
	popl	%edi
	.cfi_restore 7
	.cfi_def_cfa_offset 8
	popl	%ebp
	.cfi_restore 5
	.cfi_def_cfa_offset 4
	ret
	.cfi_endproc
.LFE512:
	.size	asl_loc_get_impth_del.isra.4, .-asl_loc_get_impth_del.isra.4
	.p2align 4,,15
	.type	asl_loc_get_path_del.isra.6, @function
asl_loc_get_path_del.isra.6:
.LFB514:
	.cfi_startproc
	pushl	%ebp
	.cfi_def_cfa_offset 8
	.cfi_offset 5, -8
	pushl	%edi
	.cfi_def_cfa_offset 12
	.cfi_offset 7, -12
	pushl	%esi
	.cfi_def_cfa_offset 16
	.cfi_offset 6, -16
	pushl	%ebx
	.cfi_def_cfa_offset 20
	.cfi_offset 3, -20
	call	__x86.get_pc_thunk.bx
	addl	$_GLOBAL_OFFSET_TABLE_, %ebx
	subl	$60, %esp
	.cfi_def_cfa_offset 80
	movl	(%eax,%edx,4), %edi
	testl	%edi, %edi
	je	.L385
	movl	__pdmindel@GOT(%ebx), %eax
	movl	%ecx, 40(%esp)
	movl	$0, 32(%esp)
	movl	$0, 8(%esp)
	movl	$0, 12(%esp)
	movl	%eax, 28(%esp)
	movl	$-1, (%eax)
	movl	$-1, 4(%eax)
	movl	__idp@GOT(%ebx), %eax
	movl	%eax, 20(%esp)
	movl	__xspi@GOT(%ebx), %eax
	movl	%eax, 36(%esp)
	jmp	.L384
	.p2align 4,,10
	.p2align 3
.L404:
	movl	12(%eax), %eax
	movl	__xspi@GOT(%ebx), %ecx
	testb	$1, (%eax)
	movl	(%ecx), %esi
	leal	-1(%esi), %edx
	je	.L401
.L378:
	movl	(%edi), %eax
	movl	%edx, (%ecx)
.L376:
	movl	20(%esp), %esi
	movl	8(%eax), %ecx
	movl	(%esi), %edx
	movl	(%edx,%ecx,4), %esi
	movl	4(%edx,%ecx,4), %ebp
	movl	12(%esp), %ecx
	movl	8(%esp), %edx
	movl	%esi, 16(%esp)
	cmpl	%ecx, %ebp
	jb	.L379
	ja	.L386
	cmpl	%edx, %esi
	jb	.L379
.L386:
	movl	(%eax), %esi
	subl	$8, %esp
	.cfi_def_cfa_offset 88
	movzwl	(%esi), %eax
	shrw	$4, %ax
	andl	$31, %eax
	pushl	%eax
	.cfi_def_cfa_offset 92
	pushl	28(%esi)
	.cfi_def_cfa_offset 96
	call	__get_del@PLT
	movl	%eax, 40(%esp)
	addl	$16, %esp
	.cfi_def_cfa_offset 80
	movl	16(%esp), %ecx
	movl	12(%esp), %eax
	xorl	8(%esp), %ecx
	xorl	%ebp, %eax
	orl	%ecx, %eax
	je	.L402
.L381:
	movl	28(%esp), %eax
	movl	24(%esp), %esi
	movl	%ebp, 12(%esp)
	movl	%edi, 32(%esp)
	movl	%esi, (%eax)
	movl	%edx, 4(%eax)
	movl	16(%esp), %eax
	movl	%eax, 8(%esp)
.L379:
	movl	4(%edi), %edi
	testl	%edi, %edi
	je	.L403
.L384:
	movl	(%edi), %eax
	movl	(%eax), %edx
	movl	36(%edx), %edx
	testl	%edx, %edx
	je	.L376
	subl	$12, %esp
	.cfi_def_cfa_offset 92
	pushl	%edx
	.cfi_def_cfa_offset 96
	call	__eval2_xpr@PLT
	movl	8(%eax), %edx
	addl	$16, %esp
	.cfi_def_cfa_offset 80
	testb	$1, (%edx)
	je	.L404
	movl	36(%esp), %eax
	movl	%eax, %ecx
	movl	(%eax), %eax
	movl	%eax, 16(%esp)
	leal	-1(%eax), %edx
	jmp	.L378
	.p2align 4,,10
	.p2align 3
.L403:
	movl	28(%esp), %eax
	movl	4(%eax), %edx
	movl	(%eax), %eax
	movl	%edx, %ecx
	andl	%eax, %ecx
	cmpl	$-1, %ecx
	je	.L385
	addl	8(%esp), %eax
	movl	40(%esp), %ebx
	adcl	12(%esp), %edx
	movl	%eax, (%ebx)
	movl	%edx, 4(%ebx)
.L373:
	movl	32(%esp), %eax
	addl	$60, %esp
	.cfi_remember_state
	.cfi_def_cfa_offset 20
	popl	%ebx
	.cfi_restore 3
	.cfi_def_cfa_offset 16
	popl	%esi
	.cfi_restore 6
	.cfi_def_cfa_offset 12
	popl	%edi
	.cfi_restore 7
	.cfi_def_cfa_offset 8
	popl	%ebp
	.cfi_restore 5
	.cfi_def_cfa_offset 4
	ret
	.p2align 4,,10
	.p2align 3
.L402:
	.cfi_restore_state
	movl	28(%esp), %eax
	testb	$32, 2(%esi)
	movl	(%eax), %ecx
	movl	%ecx, 44(%esp)
	movl	4(%eax), %ecx
	je	.L382
	movl	44(%esp), %eax
	xorl	24(%esp), %eax
	movl	%edx, %esi
	xorl	%ecx, %esi
	orl	%esi, %eax
	je	.L379
.L382:
	cmpl	%ecx, %edx
	ja	.L379
	jb	.L381
	movl	44(%esp), %ecx
	cmpl	%ecx, 24(%esp)
	ja	.L379
	jmp	.L381
	.p2align 4,,10
	.p2align 3
.L401:
	movl	%edx, (%ecx)
	jmp	.L379
	.p2align 4,,10
	.p2align 3
.L385:
	movl	$0, 32(%esp)
	jmp	.L373
	.cfi_endproc
.LFE514:
	.size	asl_loc_get_path_del.isra.6, .-asl_loc_get_path_del.isra.6
	.p2align 4,,15
	.type	asl_loc_get_path_del_scalar.isra.7, @function
asl_loc_get_path_del_scalar.isra.7:
.LFB515:
	.cfi_startproc
	pushl	%ebp
	.cfi_def_cfa_offset 8
	.cfi_offset 5, -8
	pushl	%edi
	.cfi_def_cfa_offset 12
	.cfi_offset 7, -12
	pushl	%esi
	.cfi_def_cfa_offset 16
	.cfi_offset 6, -16
	pushl	%ebx
	.cfi_def_cfa_offset 20
	.cfi_offset 3, -20
	call	__x86.get_pc_thunk.bx
	addl	$_GLOBAL_OFFSET_TABLE_, %ebx
	subl	$60, %esp
	.cfi_def_cfa_offset 80
	movl	12(%eax), %eax
	movl	$0, 32(%esp)
	movl	$0, 8(%esp)
	movl	$0, 12(%esp)
	movl	(%eax), %edi
	movl	__pdmindel@GOT(%ebx), %eax
	testl	%edi, %edi
	movl	%eax, 28(%esp)
	movl	$-1, (%eax)
	movl	$-1, 4(%eax)
	je	.L416
	movl	__idp@GOT(%ebx), %eax
	movl	%edx, 40(%esp)
	movl	%eax, 20(%esp)
	movl	__xspi@GOT(%ebx), %eax
	movl	%eax, 36(%esp)
	jmp	.L406
	.p2align 4,,10
	.p2align 3
.L437:
	movl	12(%eax), %eax
	movl	__xspi@GOT(%ebx), %ecx
	testb	$1, (%eax)
	movl	(%ecx), %esi
	leal	-1(%esi), %edx
	je	.L434
.L410:
	movl	(%edi), %eax
	movl	%edx, (%ecx)
.L408:
	movl	20(%esp), %esi
	movl	8(%eax), %ecx
	movl	(%esi), %edx
	movl	(%edx,%ecx,4), %esi
	movl	4(%edx,%ecx,4), %ebp
	movl	12(%esp), %ecx
	movl	8(%esp), %edx
	movl	%esi, 16(%esp)
	cmpl	%ecx, %ebp
	jb	.L411
	ja	.L418
	cmpl	%edx, %esi
	jb	.L411
.L418:
	movl	(%eax), %esi
	subl	$8, %esp
	.cfi_def_cfa_offset 88
	movzwl	(%esi), %eax
	shrw	$4, %ax
	andl	$31, %eax
	pushl	%eax
	.cfi_def_cfa_offset 92
	pushl	28(%esi)
	.cfi_def_cfa_offset 96
	call	__get_del@PLT
	movl	%eax, 40(%esp)
	addl	$16, %esp
	.cfi_def_cfa_offset 80
	movl	16(%esp), %ecx
	movl	12(%esp), %eax
	xorl	8(%esp), %ecx
	xorl	%ebp, %eax
	orl	%ecx, %eax
	je	.L435
.L413:
	movl	28(%esp), %eax
	movl	24(%esp), %ecx
	movl	%ebp, 12(%esp)
	movl	%edi, 32(%esp)
	movl	%ecx, (%eax)
	movl	%edx, 4(%eax)
	movl	16(%esp), %eax
	movl	%eax, 8(%esp)
.L411:
	movl	4(%edi), %edi
	testl	%edi, %edi
	je	.L436
.L406:
	movl	(%edi), %eax
	movl	(%eax), %edx
	movl	36(%edx), %edx
	testl	%edx, %edx
	je	.L408
	subl	$12, %esp
	.cfi_def_cfa_offset 92
	pushl	%edx
	.cfi_def_cfa_offset 96
	call	__eval2_xpr@PLT
	movl	8(%eax), %edx
	addl	$16, %esp
	.cfi_def_cfa_offset 80
	testb	$1, (%edx)
	je	.L437
	movl	36(%esp), %eax
	movl	%eax, %ecx
	movl	(%eax), %eax
	movl	%eax, 16(%esp)
	leal	-1(%eax), %edx
	jmp	.L410
	.p2align 4,,10
	.p2align 3
.L435:
	movl	28(%esp), %eax
	testb	$32, 2(%esi)
	movl	(%eax), %ecx
	movl	%ecx, 44(%esp)
	movl	4(%eax), %ecx
	je	.L414
	movl	44(%esp), %eax
	xorl	24(%esp), %eax
	movl	%edx, %esi
	xorl	%ecx, %esi
	orl	%esi, %eax
	je	.L411
.L414:
	cmpl	%ecx, %edx
	ja	.L411
	jb	.L413
	movl	44(%esp), %ecx
	cmpl	%ecx, 24(%esp)
	ja	.L411
	jmp	.L413
	.p2align 4,,10
	.p2align 3
.L436:
	movl	28(%esp), %eax
	movl	4(%eax), %edx
	movl	(%eax), %eax
	movl	%edx, %ecx
	andl	%eax, %ecx
	cmpl	$-1, %ecx
	je	.L416
	addl	8(%esp), %eax
	movl	40(%esp), %ebx
	adcl	12(%esp), %edx
	movl	%eax, (%ebx)
	movl	32(%esp), %eax
	movl	%edx, 4(%ebx)
	addl	$60, %esp
	.cfi_remember_state
	.cfi_def_cfa_offset 20
	popl	%ebx
	.cfi_restore 3
	.cfi_def_cfa_offset 16
	popl	%esi
	.cfi_restore 6
	.cfi_def_cfa_offset 12
	popl	%edi
	.cfi_restore 7
	.cfi_def_cfa_offset 8
	popl	%ebp
	.cfi_restore 5
	.cfi_def_cfa_offset 4
	ret
	.p2align 4,,10
	.p2align 3
.L434:
	.cfi_restore_state
	movl	%edx, (%ecx)
	jmp	.L411
	.p2align 4,,10
	.p2align 3
.L416:
	movl	$0, 32(%esp)
	movl	32(%esp), %eax
	addl	$60, %esp
	.cfi_def_cfa_offset 20
	popl	%ebx
	.cfi_restore 3
	.cfi_def_cfa_offset 16
	popl	%esi
	.cfi_restore 6
	.cfi_def_cfa_offset 12
	popl	%edi
	.cfi_restore 7
	.cfi_def_cfa_offset 8
	popl	%ebp
	.cfi_restore 5
	.cfi_def_cfa_offset 4
	ret
	.cfi_endproc
.LFE515:
	.size	asl_loc_get_path_del_scalar.isra.7, .-asl_loc_get_path_del_scalar.isra.7
	.p2align 4,,15
	.type	asl_loc_ld_vtx_netbit, @function
asl_loc_ld_vtx_netbit:
.LFB420:
	.cfi_startproc
	pushl	%ebp
	.cfi_def_cfa_offset 8
	.cfi_offset 5, -8
	pushl	%edi
	.cfi_def_cfa_offset 12
	.cfi_offset 7, -12
	pushl	%esi
	.cfi_def_cfa_offset 16
	.cfi_offset 6, -16
	pushl	%ebx
	.cfi_def_cfa_offset 20
	.cfi_offset 3, -20
	call	__x86.get_pc_thunk.bx
	addl	$_GLOBAL_OFFSET_TABLE_, %ebx
	subl	$28, %esp
	.cfi_def_cfa_offset 48
	testb	$4, 2(%ecx)
	je	.L444
	movl	__xspi@GOT(%ebx), %ebp
	movl	%edx, 12(%esp)
	movl	%ecx, %esi
	movl	%eax, 8(%esp)
	movl	__maxxnest@GOT(%ebx), %edx
	movl	0(%ebp), %eax
	addl	$1, %eax
	cmpl	(%edx), %eax
	movl	%eax, 0(%ebp)
	jge	.L445
.L441:
	movl	__xstk@GOT(%ebx), %edx
	movl	(%edx), %edx
	movl	(%edx,%eax,4), %edi
	movl	8(%esi), %edx
	leal	31(%edx), %eax
	sarl	$5, %eax
	cmpl	4(%edi), %eax
	jg	.L446
.L442:
	movl	8(%edi), %ecx
	movl	%edx, (%edi)
	leal	(%ecx,%eax,4), %eax
	movl	%eax, 12(%edi)
	pushl	%edx
	.cfi_def_cfa_offset 52
	movl	52(%esi), %edx
	pushl	(%edx)
	.cfi_def_cfa_offset 56
	pushl	%eax
	.cfi_def_cfa_offset 60
	pushl	%ecx
	.cfi_def_cfa_offset 64
	call	__ld_perinst_val@PLT
	movl	64(%esp), %edx
	movl	8(%edi), %eax
	movl	64(%esp), %ecx
	movl	24(%esp), %esi
	sarl	$5, %edx
	movl	(%eax,%edx,4), %eax
	andl	$31, %ecx
	shrl	%cl, %eax
	andl	$1, %eax
	movl	%eax, (%esi)
	movl	12(%edi), %eax
	movl	28(%esp), %esi
	addl	$16, %esp
	.cfi_def_cfa_offset 48
	movl	(%eax,%edx,4), %eax
	shrl	%cl, %eax
	andl	$1, %eax
	movl	%eax, (%esi)
	subl	$1, 0(%ebp)
	addl	$28, %esp
	.cfi_remember_state
	.cfi_def_cfa_offset 20
	popl	%ebx
	.cfi_restore 3
	.cfi_def_cfa_offset 16
	popl	%esi
	.cfi_restore 6
	.cfi_def_cfa_offset 12
	popl	%edi
	.cfi_restore 7
	.cfi_def_cfa_offset 8
	popl	%ebp
	.cfi_restore 5
	.cfi_def_cfa_offset 4
	ret
	.p2align 4,,10
	.p2align 3
.L444:
	.cfi_restore_state
	movl	52(%ecx), %esi
	movl	__idp@GOT(%ebx), %ecx
	movl	(%ecx), %ecx
	movl	(%esi), %ebx
	movl	(%ecx), %ecx
	movzbl	(%ebx,%ecx), %ecx
	movl	%ecx, (%eax)
	shrl	%ecx
	andl	$1, %ecx
	movl	%ecx, (%edx)
	andl	$1, (%eax)
	addl	$28, %esp
	.cfi_remember_state
	.cfi_def_cfa_offset 20
	popl	%ebx
	.cfi_restore 3
	.cfi_def_cfa_offset 16
	popl	%esi
	.cfi_restore 6
	.cfi_def_cfa_offset 12
	popl	%edi
	.cfi_restore 7
	.cfi_def_cfa_offset 8
	popl	%ebp
	.cfi_restore 5
	.cfi_def_cfa_offset 4
	ret
	.p2align 4,,10
	.p2align 3
.L446:
	.cfi_restore_state
	subl	$8, %esp
	.cfi_def_cfa_offset 56
	pushl	%eax
	.cfi_def_cfa_offset 60
	pushl	%edi
	.cfi_def_cfa_offset 64
	call	__chg_xstk_width@PLT
	movl	8(%esi), %edx
	addl	$16, %esp
	.cfi_def_cfa_offset 48
	leal	31(%edx), %eax
	sarl	$5, %eax
	jmp	.L442
	.p2align 4,,10
	.p2align 3
.L445:
	call	__grow_xstk@PLT
	movl	0(%ebp), %eax
	jmp	.L441
	.cfi_endproc
.LFE420:
	.size	asl_loc_ld_vtx_netbit, .-asl_loc_ld_vtx_netbit
	.p2align 4,,15
	.type	asl_loc_eval_combine_bid_chan.isra.10, @function
asl_loc_eval_combine_bid_chan.isra.10:
.LFB518:
	.cfi_startproc
	pushl	%ebp
	.cfi_def_cfa_offset 8
	.cfi_offset 5, -8
	pushl	%edi
	.cfi_def_cfa_offset 12
	.cfi_offset 7, -12
	call	__x86.get_pc_thunk.di
	addl	$_GLOBAL_OFFSET_TABLE_, %edi
	pushl	%esi
	.cfi_def_cfa_offset 16
	.cfi_offset 6, -16
	pushl	%ebx
	.cfi_def_cfa_offset 20
	.cfi_offset 3, -20
	movl	%edi, %ebx
	subl	$60, %esp
	.cfi_def_cfa_offset 80
	movl	__acum_b@GOT(%ebx), %esi
	movl	__acum_a@GOT(%ebx), %ecx
	movl	%edi, 12(%esp)
	movl	%eax, %edi
	movl	%edx, 20(%esp)
	movl	%gs:20, %eax
	movl	%eax, 44(%esp)
	xorl	%eax, %eax
	movl	__idp@GOT(%ebx), %eax
	movl	$0, (%ecx)
	movl	%esi, 4(%esp)
	movl	$1, (%esi)
	movl	(%edx), %esi
	movl	%ecx, 16(%esp)
	movl	%eax, 8(%esp)
	movl	(%eax), %eax
	testl	%esi, %esi
	movl	%eax, 28(%esp)
	je	.L456
	leal	40(%esp), %eax
	xorl	%ebp, %ebp
	movl	%eax, 24(%esp)
	jmp	.L454
	.p2align 4,,10
	.p2align 3
.L470:
	cmpl	$-1, %edx
	jne	.L451
	movl	24(%esi), %eax
	movl	(%ecx,%eax,4), %edx
	movl	%edx, %ecx
	andl	$1, %edx
	shrl	%ecx
	movl	%edx, 36(%esp)
	andl	$1, %ecx
	movl	%ecx, 40(%esp)
	.p2align 4,,10
	.p2align 3
.L452:
	movzbl	(%esi), %eax
	subl	$12, %esp
	.cfi_def_cfa_offset 92
	andl	$31, %eax
	pushl	%eax
	.cfi_def_cfa_offset 96
	pushl	%ecx
	.cfi_def_cfa_offset 100
	pushl	%edx
	.cfi_def_cfa_offset 104
	pushl	28(%esp)
	.cfi_def_cfa_offset 108
	pushl	44(%esp)
	.cfi_def_cfa_offset 112
	movl	44(%esp), %ebx
	call	__eval_1w_nonstren@PLT
	addl	$32, %esp
	.cfi_def_cfa_offset 80
	testb	$1, 3(%esi)
	je	.L453
	movl	4(%esp), %eax
	movl	$0, (%eax)
.L453:
	movl	20(%esp), %eax
	addl	$1, %ebp
	addl	$12, %edi
	cmpl	%ebp, (%eax)
	jbe	.L469
.L454:
	movl	4(%edi), %edx
	movl	(%edi), %esi
	movl	$0, %ebx
	movl	8(%edi), %eax
	cmpl	$-1, %edx
	cmovne	%edx, %ebx
	testb	$32, 4(%esi)
	movl	4(%eax), %ecx
	movl	8(%esp), %eax
	movl	%ecx, (%eax)
	je	.L450
	movl	(%ecx), %eax
	imull	8(%esi), %eax
	addl	%ebx, %eax
	movl	68(%esi), %ebx
	leal	(%eax,%eax,2), %eax
	leal	(%ebx,%eax,8), %eax
	testb	$1, (%eax)
	jne	.L470
.L450:
	leal	36(%esp), %eax
	subl	$12, %esp
	.cfi_def_cfa_offset 92
	movl	%esi, %ecx
	pushl	%edx
	.cfi_def_cfa_offset 96
	movl	40(%esp), %edx
	call	asl_loc_ld_vtx_netbit
	movl	56(%esp), %ecx
	movl	52(%esp), %edx
	addl	$16, %esp
	.cfi_def_cfa_offset 80
	jmp	.L452
	.p2align 4,,10
	.p2align 3
.L451:
	pushl	%edx
	.cfi_def_cfa_offset 84
	pushl	%esi
	.cfi_def_cfa_offset 88
	pushl	32(%esp)
	.cfi_def_cfa_offset 92
	leal	48(%esp), %eax
	pushl	%eax
	.cfi_def_cfa_offset 96
	movl	28(%esp), %ebx
	call	__ld_bit@PLT
	movl	56(%esp), %ecx
	movl	52(%esp), %edx
	addl	$16, %esp
	.cfi_def_cfa_offset 80
	jmp	.L452
	.p2align 4,,10
	.p2align 3
.L469:
	movl	16(%esp), %eax
	movl	(%eax), %eax
.L448:
	movl	8(%esp), %edi
	movl	28(%esp), %ebx
	movl	%ebx, (%edi)
	movl	44(%esp), %edi
	xorl	%gs:20, %edi
	jne	.L471
	addl	$60, %esp
	.cfi_remember_state
	.cfi_def_cfa_offset 20
	popl	%ebx
	.cfi_restore 3
	.cfi_def_cfa_offset 16
	popl	%esi
	.cfi_restore 6
	.cfi_def_cfa_offset 12
	popl	%edi
	.cfi_restore 7
	.cfi_def_cfa_offset 8
	popl	%ebp
	.cfi_restore 5
	.cfi_def_cfa_offset 4
	ret
	.p2align 4,,10
	.p2align 3
.L456:
	.cfi_restore_state
	xorl	%eax, %eax
	jmp	.L448
.L471:
	call	__stack_chk_fail_local
	.cfi_endproc
.LFE518:
	.size	asl_loc_eval_combine_bid_chan.isra.10, .-asl_loc_eval_combine_bid_chan.isra.10
	.p2align 4,,15
	.type	__asl_st_string_array_const.part.21, @function
__asl_st_string_array_const.part.21:
.LFB529:
	.cfi_startproc
	pushl	%ebp
	.cfi_def_cfa_offset 8
	.cfi_offset 5, -8
	pushl	%edi
	.cfi_def_cfa_offset 12
	.cfi_offset 7, -12
	leal	(%edx,%edx,2), %edx
	pushl	%esi
	.cfi_def_cfa_offset 16
	.cfi_offset 6, -16
	pushl	%ebx
	.cfi_def_cfa_offset 20
	.cfi_offset 3, -20
	call	__x86.get_pc_thunk.bx
	addl	$_GLOBAL_OFFSET_TABLE_, %ebx
	subl	$28, %esp
	.cfi_def_cfa_offset 48
	addl	24(%eax), %edx
	movl	48(%esp), %edi
	movl	%edx, %eax
	movl	__idp@GOT(%ebx), %edx
	movl	(%edx), %edx
	leal	(%edx,%eax,4), %esi
	movl	8(%esi), %edx
	movl	(%esi), %eax
	cmpl	%edi, %edx
	jl	.L475
.L473:
	subl	$4, %esp
	.cfi_def_cfa_offset 52
	pushl	%edi
	.cfi_def_cfa_offset 56
	pushl	%ecx
	.cfi_def_cfa_offset 60
	pushl	%eax
	.cfi_def_cfa_offset 64
	call	strncpy@PLT
	movl	%edi, 4(%esi)
	addl	$44, %esp
	.cfi_def_cfa_offset 20
	popl	%ebx
	.cfi_restore 3
	.cfi_def_cfa_offset 16
	popl	%esi
	.cfi_restore 6
	.cfi_def_cfa_offset 12
	popl	%edi
	.cfi_restore 7
	.cfi_def_cfa_offset 8
	popl	%ebp
	.cfi_restore 5
	.cfi_def_cfa_offset 4
	ret
	.p2align 4,,10
	.p2align 3
.L475:
	.cfi_def_cfa_offset 48
	.cfi_offset 3, -20
	.cfi_offset 5, -8
	.cfi_offset 6, -16
	.cfi_offset 7, -12
	leal	(%edi,%edi), %ebp
	movl	%ecx, 12(%esp)
	subl	$4, %esp
	.cfi_def_cfa_offset 52
	pushl	%ebp
	.cfi_def_cfa_offset 56
	pushl	%edx
	.cfi_def_cfa_offset 60
	pushl	%eax
	.cfi_def_cfa_offset 64
	call	__my_realloc@PLT
	addl	$16, %esp
	.cfi_def_cfa_offset 48
	movl	%eax, (%esi)
	movl	%ebp, 8(%esi)
	movl	12(%esp), %ecx
	jmp	.L473
	.cfi_endproc
.LFE529:
	.size	__asl_st_string_array_const.part.21, .-__asl_st_string_array_const.part.21
	.p2align 4,,15
	.type	asl_loc_rtl_dist_uniform.part.1.constprop.22, @function
asl_loc_rtl_dist_uniform.part.1.constprop.22:
.LFB546:
	.cfi_startproc
	pushl	%ebx
	.cfi_def_cfa_offset 8
	.cfi_offset 3, -8
	call	__x86.get_pc_thunk.cx
	addl	$_GLOBAL_OFFSET_TABLE_, %ecx
	subl	$16, %esp
	.cfi_def_cfa_offset 24
	movl	(%eax), %edx
	testl	%edx, %edx
	jne	.L485
	fldl	.LC4@GOTOFF(%ecx)
	movl	$-1844104698, (%eax)
	jmp	.L484
	.p2align 4,,10
	.p2align 3
.L486:
	fstp	%st(0)
.L484:
	fnstcw	14(%esp)
	movzwl	14(%esp), %eax
	orb	$12, %ah
	movw	%ax, 12(%esp)
	fldcw	12(%esp)
	fistpl	8(%esp)
	fldcw	14(%esp)
	movl	8(%esp), %eax
	addl	$16, %esp
	.cfi_remember_state
	.cfi_def_cfa_offset 8
	popl	%ebx
	.cfi_restore 3
	.cfi_def_cfa_offset 4
	ret
	.p2align 4,,10
	.p2align 3
.L485:
	.cfi_restore_state
	imull	$69069, %edx, %edx
	addl	$1, %edx
	movl	%edx, %ebx
	movl	%edx, (%eax)
	shrl	$9, %ebx
	orl	$1065353216, %ebx
	movl	%ebx, 4(%esp)
	flds	4(%esp)
	fld	%st(0)
	fmuls	.LC5@GOTOFF(%ecx)
	faddp	%st, %st(1)
	fld1
	fsubr	%st, %st(1)
	fldl	.LC7@GOTOFF(%ecx)
	fmul	%st, %st(2)
	flds	.LC8@GOTOFF(%ecx)
	fsubr	%st, %st(3)
	fadd	%st, %st(3)
	fxch	%st(3)
	fdivp	%st, %st(1)
	fmuls	.LC9@GOTOFF(%ecx)
	fsubp	%st, %st(2)
	fldz
	fxch	%st(2)
	fucomi	%st(2), %st
	fstp	%st(2)
	jnb	.L486
	fsubrp	%st, %st(1)
	jmp	.L484
	.cfi_endproc
.LFE546:
	.size	asl_loc_rtl_dist_uniform.part.1.constprop.22, .-asl_loc_rtl_dist_uniform.part.1.constprop.22
	.p2align 4,,15
	.type	asl_loc_reschedule_1wev.part.5, @function
asl_loc_reschedule_1wev.part.5:
.LFB513:
	.cfi_startproc
	pushl	%ebp
	.cfi_def_cfa_offset 8
	.cfi_offset 5, -8
	pushl	%edi
	.cfi_def_cfa_offset 12
	.cfi_offset 7, -12
	movl	%ecx, %ebp
	pushl	%esi
	.cfi_def_cfa_offset 16
	.cfi_offset 6, -16
	pushl	%ebx
	.cfi_def_cfa_offset 20
	.cfi_offset 3, -20
	movl	%edx, %edi
	call	__x86.get_pc_thunk.si
	addl	$_GLOBAL_OFFSET_TABLE_, %esi
	subl	$12, %esp
	.cfi_def_cfa_offset 32
	movl	%eax, %ebx
	call	linkout_tevp
	movl	__cur_tevp@GOT(%esi), %eax
	movl	%edi, 24(%ebx)
	movl	%ebp, 28(%ebx)
	movl	$0, 48(%ebx)
	cmpl	(%eax), %ebx
	je	.L488
	movl	$0, 44(%ebx)
.L488:
	movl	%ebp, %eax
	movl	__time_hash@GOT(%esi), %edx
	xorl	%edi, %eax
	imull	$-1640531535, %eax, %eax
	andl	$4095, %eax
	movl	(%edx,%eax,4), %edx
	testl	%edx, %edx
	je	.L494
	xorl	4(%edx), %edi
	xorl	8(%edx), %ebp
	orl	%edi, %ebp
	jne	.L491
	movl	16(%edx), %eax
	movl	%edx, 20(%ebx)
	testl	%eax, %eax
	je	.L495
	movl	%ebx, 44(%eax)
	movl	%eax, 48(%ebx)
	movl	%ebx, 16(%edx)
	movl	$1, 8(%ebx)
	addl	$12, %esp
	.cfi_remember_state
	.cfi_def_cfa_offset 20
	popl	%ebx
	.cfi_restore 3
	.cfi_def_cfa_offset 16
	popl	%esi
	.cfi_restore 6
	.cfi_def_cfa_offset 12
	popl	%edi
	.cfi_restore 7
	.cfi_def_cfa_offset 8
	popl	%ebp
	.cfi_restore 5
	.cfi_def_cfa_offset 4
	ret
	.p2align 4,,10
	.p2align 3
.L491:
	.cfi_restore_state
	movl	%ebx, %eax
	call	asl_loc_conflict_list
	movl	$1, 8(%ebx)
	addl	$12, %esp
	.cfi_remember_state
	.cfi_def_cfa_offset 20
	popl	%ebx
	.cfi_restore 3
	.cfi_def_cfa_offset 16
	popl	%esi
	.cfi_restore 6
	.cfi_def_cfa_offset 12
	popl	%edi
	.cfi_restore 7
	.cfi_def_cfa_offset 8
	popl	%ebp
	.cfi_restore 5
	.cfi_def_cfa_offset 4
	ret
	.p2align 4,,10
	.p2align 3
.L494:
	.cfi_restore_state
	movl	%eax, %edx
	movl	%ebx, %eax
	call	asl_loc_add_new_heap_time
	movl	%ebx, 16(%eax)
	movl	%ebx, 12(%eax)
	movl	$0, 24(%eax)
	movl	$0, 20(%eax)
	movl	$1, 8(%ebx)
	addl	$12, %esp
	.cfi_remember_state
	.cfi_def_cfa_offset 20
	popl	%ebx
	.cfi_restore 3
	.cfi_def_cfa_offset 16
	popl	%esi
	.cfi_restore 6
	.cfi_def_cfa_offset 12
	popl	%edi
	.cfi_restore 7
	.cfi_def_cfa_offset 8
	popl	%ebp
	.cfi_restore 5
	.cfi_def_cfa_offset 4
	ret
	.p2align 4,,10
	.p2align 3
.L495:
	.cfi_restore_state
	movl	%ebx, 16(%edx)
	movl	%ebx, 12(%edx)
	movl	$1, 8(%ebx)
	addl	$12, %esp
	.cfi_def_cfa_offset 20
	popl	%ebx
	.cfi_restore 3
	.cfi_def_cfa_offset 16
	popl	%esi
	.cfi_restore 6
	.cfi_def_cfa_offset 12
	popl	%edi
	.cfi_restore 7
	.cfi_def_cfa_offset 8
	popl	%ebp
	.cfi_restore 5
	.cfi_def_cfa_offset 4
	ret
	.cfi_endproc
.LFE513:
	.size	asl_loc_reschedule_1wev.part.5, .-asl_loc_reschedule_1wev.part.5
	.p2align 4,,15
	.type	asl_loc_schedule_1wev, @function
asl_loc_schedule_1wev:
.LFB430:
	.cfi_startproc
	pushl	%ebp
	.cfi_def_cfa_offset 8
	.cfi_offset 5, -8
	pushl	%edi
	.cfi_def_cfa_offset 12
	.cfi_offset 7, -12
	pushl	%esi
	.cfi_def_cfa_offset 16
	.cfi_offset 6, -16
	pushl	%ebx
	.cfi_def_cfa_offset 20
	.cfi_offset 3, -20
	movl	%eax, %esi
	call	__x86.get_pc_thunk.cx
	addl	$_GLOBAL_OFFSET_TABLE_, %ecx
	subl	$12, %esp
	.cfi_def_cfa_offset 32
	movl	%edx, %ebx
	movl	40(%esp), %eax
	movl	44(%esp), %edi
	movl	%eax, 24(%edx)
	movl	%edi, 28(%edx)
	movl	36(%esp), %edx
	orl	32(%esp), %edx
	jne	.L497
	movl	__p0_te_hdrp@GOT(%ecx), %eax
	movl	(%eax), %edx
	testl	%edx, %edx
	je	.L505
	movl	__p0_te_endp@GOT(%ecx), %eax
	movl	(%eax), %edx
	movl	%ebx, (%eax)
	movl	__free_event_pnd0_tevp@GOT(%ecx), %eax
	movl	%ebx, 44(%edx)
	movl	(%eax), %eax
	movl	%eax, 44(%ebx)
.L499:
	movl	48(%esp), %eax
	movl	%esi, 4(%ebx)
	movl	$1, 8(%ebx)
	movb	%al, 2(%ebx)
	addl	$12, %esp
	.cfi_remember_state
	.cfi_def_cfa_offset 20
	popl	%ebx
	.cfi_restore 3
	.cfi_def_cfa_offset 16
	popl	%esi
	.cfi_restore 6
	.cfi_def_cfa_offset 12
	popl	%edi
	.cfi_restore 7
	.cfi_def_cfa_offset 8
	popl	%ebp
	.cfi_restore 5
	.cfi_def_cfa_offset 4
	ret
	.p2align 4,,10
	.p2align 3
.L505:
	.cfi_restore_state
	movl	__p0_te_endp@GOT(%ecx), %edx
	movl	%ebx, (%eax)
	movl	%ebx, (%edx)
	jmp	.L499
	.p2align 4,,10
	.p2align 3
.L497:
	movl	__cur_tevp@GOT(%ecx), %edx
	movl	$0, 48(%ebx)
	cmpl	(%edx), %ebx
	je	.L500
	movl	$0, 44(%ebx)
.L500:
	movl	%edi, %ebp
	movl	__time_hash@GOT(%ecx), %edx
	xorl	%eax, %ebp
	imull	$-1640531535, %ebp, %ebp
	andl	$4095, %ebp
	movl	(%edx,%ebp,4), %edx
	testl	%edx, %edx
	je	.L506
	xorl	4(%edx), %eax
	xorl	8(%edx), %edi
	orl	%eax, %edi
	jne	.L502
	movl	16(%edx), %eax
	movl	%edx, 20(%ebx)
	testl	%eax, %eax
	je	.L507
	movl	%ebx, 44(%eax)
	movl	%eax, 48(%ebx)
	movl	%ebx, 16(%edx)
	jmp	.L499
	.p2align 4,,10
	.p2align 3
.L502:
	movl	%ebx, %eax
	call	asl_loc_conflict_list
	jmp	.L499
	.p2align 4,,10
	.p2align 3
.L506:
	movl	%ebp, %edx
	movl	%ebx, %eax
	call	asl_loc_add_new_heap_time
	movl	%ebx, 16(%eax)
	movl	%ebx, 12(%eax)
	movl	$0, 24(%eax)
	movl	$0, 20(%eax)
	jmp	.L499
	.p2align 4,,10
	.p2align 3
.L507:
	movl	%ebx, 16(%edx)
	movl	%ebx, 12(%edx)
	jmp	.L499
	.cfi_endproc
.LFE430:
	.size	asl_loc_schedule_1wev, .-asl_loc_schedule_1wev
	.section	.rodata.str1.4
	.align 4
.LC11:
	.string	"distributed longer or no path delay"
	.section	.rodata.str1.1
.LC12:
	.string	"pulse"
.LC13:
	.string	"inout unstable"
	.text
	.p2align 4,,15
	.type	asl_loc_schd_1bitpthdrvr, @function
asl_loc_schd_1bitpthdrvr:
.LFB399:
	.cfi_startproc
	pushl	%ebp
	.cfi_def_cfa_offset 8
	.cfi_offset 5, -8
	pushl	%edi
	.cfi_def_cfa_offset 12
	.cfi_offset 7, -12
	movl	%eax, %edi
	pushl	%esi
	.cfi_def_cfa_offset 16
	.cfi_offset 6, -16
	pushl	%ebx
	.cfi_def_cfa_offset 20
	.cfi_offset 3, -20
	movl	%ecx, %esi
	call	__x86.get_pc_thunk.bx
	addl	$_GLOBAL_OFFSET_TABLE_, %ebx
	subl	$60, %esp
	.cfi_def_cfa_offset 80
	movl	%gs:20, %eax
	movl	%eax, 44(%esp)
	xorl	%eax, %eax
	movl	__new_gateval@GOT(%ebx), %eax
	movl	%edx, 4(%esp)
	movl	8(%ecx), %edx
	movl	%eax, 8(%esp)
	movl	(%eax), %ebp
	movl	__old_gateval@GOT(%ebx), %eax
	testl	%edx, %edx
	movl	(%eax), %eax
	movl	%eax, (%esp)
	jne	.L509
	cmpl	%eax, %ebp
	je	.L548
	movzbl	2(%edi), %eax
	shrb	$7, %al
	movzbl	%al, %eax
	movl	%eax, 12(%esp)
.L539:
	movl	36(%edi), %eax
	movl	4(%esp), %edx
	leal	32(%esp), %ecx
	movl	%ecx, 24(%esp)
	movl	12(%eax), %eax
	call	asl_loc_get_path_del.isra.6
	testl	%eax, %eax
	movl	%eax, %ecx
	je	.L549
	movl	32(%esp), %eax
	movl	36(%esp), %edx
	movl	%eax, 16(%esp)
	movl	__simtime@GOT(%ebx), %eax
	movl	%edx, 20(%esp)
	movl	20(%esp), %edx
	cmpl	4(%eax), %edx
	movl	%eax, 28(%esp)
	jbe	.L553
.L515:
	movl	8(%esi), %eax
	testl	%eax, %eax
	je	.L554
	cmpl	(%esp), %ebp
	je	.L514
	movl	%ebp, %eax
	cmpb	%al, 2(%esi)
	je	.L548
	movl	__warn_cancel_e@GOT(%ebx), %eax
	movl	(%eax), %edi
	testl	%edi, %edi
	je	.L534
	movl	__no_warns@GOT(%ebx), %eax
	movl	(%eax), %edx
	testl	%edx, %edx
	je	.L555
.L534:
	movl	__show_cancel_e@GOT(%ebx), %eax
	movl	(%eax), %edi
	testl	%edi, %edi
	jne	.L552
	movl	%ebp, %eax
	movl	32(%esp), %edx
	movl	36(%esp), %ecx
	movb	%al, 2(%esi)
	movl	28(%esi), %ebx
	movl	24(%esi), %eax
	xorl	%ecx, %ebx
	xorl	%edx, %eax
	orl	%eax, %ebx
	je	.L548
	movl	%esi, %eax
	call	asl_loc_reschedule_1wev.part.5
	jmp	.L508
	.p2align 4,,10
	.p2align 3
.L509:
	movzbl	2(%edi), %eax
	shrb	$7, %al
	cmpl	(%esp), %ebp
	movzbl	%al, %eax
	movl	%eax, 12(%esp)
	jne	.L539
	movl	$0, 32(%esp)
	movl	$0, 36(%esp)
.L514:
	movl	__warn_cancel_e@GOT(%ebx), %eax
	movl	(%eax), %eax
	testl	%eax, %eax
	jne	.L556
.L527:
	movl	__show_cancel_e@GOT(%ebx), %eax
	movl	(%eax), %edi
	testl	%edi, %edi
	je	.L529
.L552:
	movl	__showe_onevent@GOT(%ebx), %eax
	movl	(%eax), %eax
	testl	%eax, %eax
	je	.L537
	cmpl	$1, 12(%esp)
	sbbl	%eax, %eax
	andl	$40, %eax
	subl	$37, %eax
	movb	%al, 2(%esi)
.L548:
	xorl	%edi, %edi
.L508:
	movl	44(%esp), %edx
	xorl	%gs:20, %edx
	movl	%edi, %eax
	jne	.L557
	addl	$60, %esp
	.cfi_remember_state
	.cfi_def_cfa_offset 20
	popl	%ebx
	.cfi_restore 3
	.cfi_def_cfa_offset 16
	popl	%esi
	.cfi_restore 6
	.cfi_def_cfa_offset 12
	popl	%edi
	.cfi_restore 7
	.cfi_def_cfa_offset 8
	popl	%ebp
	.cfi_restore 5
	.cfi_def_cfa_offset 4
	ret
	.p2align 4,,10
	.p2align 3
.L537:
	.cfi_restore_state
	movl	%esi, %eax
	call	linkout_tevp
.L522:
	movl	12(%esp), %edx
	movl	8(%esp), %eax
	testl	%edx, %edx
	je	.L523
	movl	$219, (%eax)
	.p2align 4,,10
	.p2align 3
.L549:
	movl	$1, %edi
	jmp	.L508
	.p2align 4,,10
	.p2align 3
.L553:
	jb	.L543
	movl	16(%esp), %edx
	cmpl	(%eax), %edx
	ja	.L515
.L543:
	movl	__no_informs@GOT(%ebx), %eax
	movl	(%eax), %eax
	testl	%eax, %eax
	je	.L558
.L517:
	movl	8(%esi), %eax
	testl	%eax, %eax
	je	.L549
	movl	__warn_cancel_e@GOT(%ebx), %eax
	movl	(%eax), %ebp
	testl	%ebp, %ebp
	je	.L520
	movl	__no_warns@GOT(%ebx), %eax
	movl	(%eax), %edi
	testl	%edi, %edi
	jne	.L520
	movl	%ecx, (%esp)
	subl	$12, %esp
	.cfi_def_cfa_offset 92
	pushl	$592
	.cfi_def_cfa_offset 96
	call	__em_suppr@PLT
	addl	$16, %esp
	.cfi_def_cfa_offset 80
	testl	%eax, %eax
	movl	(%esp), %ecx
	jne	.L520
	leal	.LC11@GOTOFF(%ebx), %eax
	subl	$8, %esp
	.cfi_def_cfa_offset 88
	pushl	20(%esp)
	.cfi_def_cfa_offset 92
	pushl	%eax
	.cfi_def_cfa_offset 96
	leal	24(%esi), %eax
	pushl	%eax
	.cfi_def_cfa_offset 100
	pushl	48(%esp)
	.cfi_def_cfa_offset 104
	pushl	%esi
	.cfi_def_cfa_offset 108
	pushl	%ecx
	.cfi_def_cfa_offset 112
	call	__emit_path_pulsewarn@PLT
	addl	$32, %esp
	.cfi_def_cfa_offset 80
	.p2align 4,,10
	.p2align 3
.L520:
	movl	%esi, %eax
	call	linkout_tevp
	movl	__show_cancel_e@GOT(%ebx), %eax
	movl	(%eax), %ecx
	testl	%ecx, %ecx
	jne	.L522
	jmp	.L549
	.p2align 4,,10
	.p2align 3
.L556:
	movl	__no_warns@GOT(%ebx), %eax
	movl	(%eax), %ebp
	testl	%ebp, %ebp
	jne	.L527
	subl	$12, %esp
	.cfi_def_cfa_offset 92
	pushl	$592
	.cfi_def_cfa_offset 96
	call	__em_suppr@PLT
	addl	$16, %esp
	.cfi_def_cfa_offset 80
	testl	%eax, %eax
	jne	.L527
	leal	.LC12@GOTOFF(%ebx), %eax
	subl	$8, %esp
	.cfi_def_cfa_offset 88
	pushl	20(%esp)
	.cfi_def_cfa_offset 92
	pushl	%eax
	.cfi_def_cfa_offset 96
	leal	24(%esi), %eax
	pushl	%eax
	.cfi_def_cfa_offset 100
	pushl	%esi
	.cfi_def_cfa_offset 104
	pushl	28(%esp)
	.cfi_def_cfa_offset 108
	pushl	%edi
	.cfi_def_cfa_offset 112
	call	__emit_path_samewarn@PLT
	addl	$32, %esp
	.cfi_def_cfa_offset 80
	jmp	.L527
	.p2align 4,,10
	.p2align 3
.L554:
	movl	__pdmindel@GOT(%ebx), %eax
	subl	$12, %esp
	.cfi_def_cfa_offset 92
	movl	%esi, %edx
	pushl	%ebp
	.cfi_def_cfa_offset 96
	pushl	36(%esp)
	.cfi_def_cfa_offset 100
	xorl	%edi, %edi
	pushl	36(%esp)
	.cfi_def_cfa_offset 104
	pushl	4(%eax)
	.cfi_def_cfa_offset 108
	pushl	(%eax)
	.cfi_def_cfa_offset 112
	movl	36(%esp), %eax
	call	asl_loc_schedule_1wev
	addl	$32, %esp
	.cfi_def_cfa_offset 80
	jmp	.L508
	.p2align 4,,10
	.p2align 3
.L523:
	movl	$3, (%eax)
	movl	$1, %edi
	jmp	.L508
	.p2align 4,,10
	.p2align 3
.L558:
	subl	$4, %esp
	.cfi_def_cfa_offset 84
	pushl	__pdmindel@GOT(%ebx)
	.cfi_def_cfa_offset 88
	pushl	%ecx
	.cfi_def_cfa_offset 92
	movl	%ecx, 12(%esp)
	pushl	%edi
	.cfi_def_cfa_offset 96
	call	__emit_path_distinform@PLT
	addl	$16, %esp
	.cfi_def_cfa_offset 80
	movl	(%esp), %ecx
	jmp	.L517
	.p2align 4,,10
	.p2align 3
.L529:
	movl	%esi, %eax
	call	linkout_tevp
	jmp	.L508
	.p2align 4,,10
	.p2align 3
.L555:
	movl	%ecx, (%esp)
	subl	$12, %esp
	.cfi_def_cfa_offset 92
	pushl	$592
	.cfi_def_cfa_offset 96
	call	__em_suppr@PLT
	addl	$16, %esp
	.cfi_def_cfa_offset 80
	testl	%eax, %eax
	movl	(%esp), %ecx
	jne	.L534
	leal	.LC13@GOTOFF(%ebx), %eax
	subl	$8, %esp
	.cfi_def_cfa_offset 88
	pushl	20(%esp)
	.cfi_def_cfa_offset 92
	pushl	%eax
	.cfi_def_cfa_offset 96
	leal	24(%esi), %eax
	pushl	40(%esp)
	.cfi_def_cfa_offset 100
	pushl	%eax
	.cfi_def_cfa_offset 104
	pushl	%esi
	.cfi_def_cfa_offset 108
	pushl	%ecx
	.cfi_def_cfa_offset 112
	call	__emit_path_pulsewarn@PLT
	addl	$32, %esp
	.cfi_def_cfa_offset 80
	jmp	.L534
.L557:
	call	__stack_chk_fail_local
	.cfi_endproc
.LFE399:
	.size	asl_loc_schd_1bitpthdrvr, .-asl_loc_schd_1bitpthdrvr
	.p2align 4,,15
	.globl	__alnk_init_mdp
	.type	__alnk_init_mdp, @function
__alnk_init_mdp:
.LFB88:
	.cfi_startproc
	call	__x86.get_pc_thunk.ax
	addl	$_GLOBAL_OFFSET_TABLE_, %eax
	movl	4(%esp), %ecx
	movl	__dsgn_mod_ndx@GOT(%eax), %edx
	movl	__init_mdp@GOT(%eax), %eax
	movl	(%edx), %edx
	movl	(%edx,%ecx,4), %edx
	movl	%edx, (%eax)
	ret
	.cfi_endproc
.LFE88:
	.size	__alnk_init_mdp, .-__alnk_init_mdp
	.p2align 4,,15
	.globl	__alnk_fixup_allmods_comm_idp_areas
	.type	__alnk_fixup_allmods_comm_idp_areas, @function
__alnk_fixup_allmods_comm_idp_areas:
.LFB89:
	.cfi_startproc
	pushl	%ebp
	.cfi_def_cfa_offset 8
	.cfi_offset 5, -8
	pushl	%edi
	.cfi_def_cfa_offset 12
	.cfi_offset 7, -12
	call	__x86.get_pc_thunk.ax
	addl	$_GLOBAL_OFFSET_TABLE_, %eax
	pushl	%esi
	.cfi_def_cfa_offset 16
	.cfi_offset 6, -16
	pushl	%ebx
	.cfi_def_cfa_offset 20
	.cfi_offset 3, -20
	subl	$44, %esp
	.cfi_def_cfa_offset 64
	movl	__dsgn_num_mods@GOT(%eax), %edi
	movl	%eax, 4(%esp)
	movl	(%edi), %edx
	movl	%edi, 28(%esp)
	testl	%edx, %edx
	jle	.L560
	movl	__dsgn_mod_ndx@GOT(%eax), %edi
	leal	.LC3@GOTOFF(%eax), %eax
	movl	$0, 12(%esp)
	movl	%eax, 20(%esp)
	movl	%edi, 24(%esp)
	.p2align 4,,10
	.p2align 3
.L576:
	movl	24(%esp), %eax
	movl	12(%esp), %edi
	movl	(%eax), %eax
	movl	(%eax,%edi,4), %eax
	movl	%eax, 8(%esp)
	movl	152(%eax), %esi
	movl	36(%eax), %eax
	testl	%eax, %eax
	jle	.L562
	xorl	%edi, %edi
	.p2align 4,,10
	.p2align 3
.L573:
	movl	44(%esi), %eax
	testl	%eax, %eax
	je	.L563
	.p2align 4,,10
	.p2align 3
.L565:
	movzbl	1(%eax), %edx
	andl	$3, %edx
	cmpb	$2, %dl
	jne	.L564
	movzbl	(%eax), %edx
	andl	$48, %edx
	cmpb	$32, %dl
	jne	.L564
	movl	20(%eax), %edx
	movl	4(%edx), %ecx
	movl	(%edx), %ebx
	movl	260(%ecx), %ecx
	leal	(%ecx,%ebx,4), %ecx
	movl	%ecx, 24(%edx)
.L564:
	movl	24(%eax), %eax
	testl	%eax, %eax
	jne	.L565
.L563:
	movl	48(%esi), %eax
	testl	%eax, %eax
	je	.L566
	.p2align 4,,10
	.p2align 3
.L568:
	movzbl	1(%eax), %edx
	andl	$3, %edx
	cmpb	$2, %dl
	jne	.L567
	movzbl	(%eax), %edx
	andl	$48, %edx
	cmpb	$32, %dl
	jne	.L567
	movl	20(%eax), %edx
	movl	4(%edx), %ecx
	movl	(%edx), %ebx
	movl	260(%ecx), %ecx
	leal	(%ecx,%ebx,4), %ecx
	movl	%ecx, 24(%edx)
.L567:
	movl	24(%eax), %eax
	testl	%eax, %eax
	jne	.L568
.L566:
	movl	40(%esi), %ebp
	testl	%ebp, %ebp
	jne	.L572
	jmp	.L569
	.p2align 4,,10
	.p2align 3
.L570:
	movl	72(%ebp), %ebp
	testl	%ebp, %ebp
	je	.L569
.L572:
	cmpb	$0, 2(%ebp)
	jns	.L570
	movl	24(%ebp), %eax
	testl	%eax, %eax
	movl	%eax, %edx
	je	.L603
.L571:
	movl	4(%eax), %ecx
	movl	(%eax), %ebx
	subl	$8, %esp
	.cfi_def_cfa_offset 72
	movl	260(%ecx), %ecx
	leal	(%ecx,%ebx,4), %ecx
	movl	12(%eax), %ebx
	movl	%ecx, 56(%ebp)
	movl	8(%eax), %ecx
	movl	260(%ebx), %eax
	leal	(%eax,%ecx,4), %eax
	movl	%eax, 60(%ebp)
	pushl	$16
	.cfi_def_cfa_offset 76
	pushl	%edx
	.cfi_def_cfa_offset 80
	movl	20(%esp), %ebx
	call	__my_free@PLT
	movl	$0, 24(%ebp)
	movl	72(%ebp), %ebp
	addl	$16, %esp
	.cfi_def_cfa_offset 64
	testl	%ebp, %ebp
	jne	.L572
.L569:
	movl	8(%esp), %eax
	addl	$1, %edi
	addl	$136, %esi
	cmpl	36(%eax), %edi
	jl	.L573
.L562:
	movl	8(%esp), %eax
	movl	12(%eax), %ecx
	movl	260(%eax), %edx
	testl	%ecx, %ecx
	jle	.L574
	movl	264(%eax), %edi
	movl	160(%eax), %eax
	leal	0(,%edi,4), %ebx
	leal	(%eax,%ecx,4), %esi
	movl	%edi, 8(%esp)
	.p2align 4,,10
	.p2align 3
.L575:
	movl	(%eax), %ecx
	addl	$4, %eax
	movl	%edx, 4(%ecx)
	addl	%ebx, %edx
	cmpl	%eax, %esi
	jne	.L575
.L574:
	movl	28(%esp), %eax
	addl	$1, 12(%esp)
	movl	12(%esp), %edi
	movl	(%eax), %eax
	cmpl	%edi, %eax
	jg	.L576
	testl	%eax, %eax
	jle	.L560
	movl	24(%esp), %edi
	movl	(%edi), %esi
	leal	(%esi,%eax,4), %edi
	.p2align 4,,10
	.p2align 3
.L580:
	movl	(%esi), %eax
	movl	12(%eax), %edx
	testl	%edx, %edx
	jle	.L577
	movl	160(%eax), %eax
	leal	(%eax,%edx,4), %ebx
	.p2align 4,,10
	.p2align 3
.L579:
	movl	(%eax), %ecx
	movl	8(%ecx), %edx
	testl	%edx, %edx
	je	.L578
	movl	4(%ecx), %ecx
	movl	4(%edx), %edx
	movl	%edx, 12(%ecx)
.L578:
	addl	$4, %eax
	cmpl	%ebx, %eax
	jne	.L579
.L577:
	addl	$4, %esi
	cmpl	%esi, %edi
	jne	.L580
.L560:
	addl	$44, %esp
	.cfi_remember_state
	.cfi_def_cfa_offset 20
	popl	%ebx
	.cfi_restore 3
	.cfi_def_cfa_offset 16
	popl	%esi
	.cfi_restore 6
	.cfi_def_cfa_offset 12
	popl	%edi
	.cfi_restore 7
	.cfi_def_cfa_offset 8
	popl	%ebp
	.cfi_restore 5
	.cfi_def_cfa_offset 4
	ret
	.p2align 4,,10
	.p2align 3
.L603:
	.cfi_restore_state
	movl	%eax, 16(%esp)
	subl	$8, %esp
	.cfi_def_cfa_offset 72
	pushl	$635
	.cfi_def_cfa_offset 76
	pushl	32(%esp)
	.cfi_def_cfa_offset 80
	movl	20(%esp), %ebx
	call	__misc_terr@PLT
	addl	$16, %esp
	.cfi_def_cfa_offset 64
	movl	24(%ebp), %edx
	movl	16(%esp), %eax
	jmp	.L571
	.cfi_endproc
.LFE89:
	.size	__alnk_fixup_allmods_comm_idp_areas, .-__alnk_fixup_allmods_comm_idp_areas
	.p2align 4,,15
	.globl	__alnk_init_tev_dat
	.type	__alnk_init_tev_dat, @function
__alnk_init_tev_dat:
.LFB91:
	.cfi_startproc
	pushl	%ebp
	.cfi_def_cfa_offset 8
	.cfi_offset 5, -8
	pushl	%edi
	.cfi_def_cfa_offset 12
	.cfi_offset 7, -12
	call	__x86.get_pc_thunk.dx
	addl	$_GLOBAL_OFFSET_TABLE_, %edx
	pushl	%esi
	.cfi_def_cfa_offset 16
	.cfi_offset 6, -16
	pushl	%ebx
	.cfi_def_cfa_offset 20
	.cfi_offset 3, -20
	subl	$76, %esp
	.cfi_def_cfa_offset 96
	movl	__init_mdp@GOT(%edx), %ecx
	movl	96(%esp), %eax
	movl	112(%esp), %edi
	movl	116(%esp), %ebp
	movl	(%ecx), %esi
	movl	__tevdat_template@GOTOFF(%edx), %ecx
	movl	%edi, (%esp)
	movl	%ebp, 4(%esp)
	movl	%ecx, (%eax)
	movl	4+__tevdat_template@GOTOFF(%edx), %ecx
	movl	%ecx, 4(%eax)
	movl	8+__tevdat_template@GOTOFF(%edx), %ecx
	movl	%ecx, 8(%eax)
	movl	12+__tevdat_template@GOTOFF(%edx), %ecx
	movl	%ecx, 12(%eax)
	movl	16+__tevdat_template@GOTOFF(%edx), %ecx
	movl	%ecx, 16(%eax)
	movl	20+__tevdat_template@GOTOFF(%edx), %ecx
	movl	%ecx, 20(%eax)
	movl	24+__tevdat_template@GOTOFF(%edx), %ecx
	movl	%ecx, 24(%eax)
	movl	28+__tevdat_template@GOTOFF(%edx), %ecx
	movl	%ecx, 28(%eax)
	movl	32+__tevdat_template@GOTOFF(%edx), %ecx
	movl	%ecx, 32(%eax)
	movl	36+__tevdat_template@GOTOFF(%edx), %ecx
	movl	%ecx, 36(%eax)
	movl	40+__tevdat_template@GOTOFF(%edx), %ecx
	movl	%ecx, 40(%eax)
	movl	44+__tevdat_template@GOTOFF(%edx), %ecx
	movl	%ecx, 44(%eax)
	movl	48+__tevdat_template@GOTOFF(%edx), %ecx
	movl	%ecx, 48(%eax)
	movl	52+__tevdat_template@GOTOFF(%edx), %ecx
	movl	%ecx, 52(%eax)
	movl	56+__tevdat_template@GOTOFF(%edx), %ecx
	movl	%edi, 36(%eax)
	movl	%ebp, 40(%eax)
	movl	%ecx, 56(%eax)
	movl	104(%esp), %ecx
	cmpl	$1, 12(%esi)
	movl	%ecx, 12(%eax)
	movl	260(%esi), %ecx
	movl	%ecx, 8(%esp)
	movl	%ecx, 32(%eax)
	jle	.L605
	movl	108(%esp), %edi
	movl	%eax, (%ecx,%edi,4)
.L605:
	cmpl	$1, 100(%esp)
	jle	.L604
	leal	__tevdat_template@GOTOFF, %edi
	leal	32+__tevdat_template@GOTOFF, %ebx
	leal	52+__tevdat_template@GOTOFF, %ebp
	movl	$1, %ecx
	movl	%edi, 56(%esp)
	leal	4+__tevdat_template@GOTOFF, %edi
	movl	%ebx, 12(%esp)
	leal	40+__tevdat_template@GOTOFF, %ebx
	movl	%ebp, 64(%esp)
	movl	%edi, 32(%esp)
	leal	8+__tevdat_template@GOTOFF, %edi
	movl	%ebx, 20(%esp)
	leal	48+__tevdat_template@GOTOFF, %ebx
	movl	%edi, 36(%esp)
	leal	12+__tevdat_template@GOTOFF, %edi
	movl	%ebx, 28(%esp)
	movl	%edi, 40(%esp)
	leal	16+__tevdat_template@GOTOFF, %edi
	movl	%edi, 44(%esp)
	leal	20+__tevdat_template@GOTOFF, %edi
	movl	%edi, 48(%esp)
	leal	24+__tevdat_template@GOTOFF, %edi
	movl	%edi, 52(%esp)
	leal	28+__tevdat_template@GOTOFF, %edi
	movl	%edi, 60(%esp)
	leal	36+__tevdat_template@GOTOFF, %edi
	movl	%edi, 16(%esp)
	leal	44+__tevdat_template@GOTOFF, %edi
	movl	%edi, 24(%esp)
	leal	56+__tevdat_template@GOTOFF, %edi
	movl	%edi, 68(%esp)
	.p2align 4,,10
	.p2align 3
.L608:
	movl	56(%esp), %edi
	addl	$60, %eax
	movl	(%edi,%edx), %ebx
	movl	32(%esp), %edi
	movl	%ebx, (%eax)
	movl	(%edi,%edx), %ebx
	movl	36(%esp), %edi
	movl	%ebx, 4(%eax)
	movl	(%edi,%edx), %ebx
	movl	40(%esp), %edi
	movl	%ebx, 8(%eax)
	movl	(%edi,%edx), %ebx
	movl	44(%esp), %edi
	movl	%ebx, 12(%eax)
	movl	(%edi,%edx), %ebx
	movl	48(%esp), %edi
	movl	%ebx, 16(%eax)
	movl	(%edi,%edx), %ebx
	movl	52(%esp), %edi
	movl	%ebx, 20(%eax)
	movl	(%edi,%edx), %ebx
	movl	60(%esp), %edi
	movl	%ebx, 24(%eax)
	movl	(%edi,%edx), %ebx
	movl	12(%esp), %edi
	movl	%ebx, 28(%eax)
	movl	(%edi,%edx), %ebx
	movl	16(%esp), %edi
	movl	%ebx, 32(%eax)
	movl	(%edi,%edx), %ebx
	movl	20(%esp), %edi
	movl	%ebx, 36(%eax)
	movl	(%edi,%edx), %ebx
	movl	%ebx, 40(%eax)
	movl	24(%esp), %edi
	movl	4(%esp), %ebp
	movl	(%edi,%edx), %ebx
	movl	28(%esp), %edi
	movl	%ebx, 44(%eax)
	movl	(%edi,%edx), %ebx
	movl	104(%esp), %edi
	movl	%ebx, 48(%eax)
	movl	64(%esp), %ebx
	movl	(%ebx,%edx), %ebx
	movl	%ebx, 52(%eax)
	movl	68(%esp), %ebx
	movl	(%ebx,%edx), %ebx
	movl	%edi, 12(%eax)
	movl	(%esp), %edi
	movl	%ebp, 40(%eax)
	movl	%ebx, 56(%eax)
	movl	264(%esi), %ebx
	movl	%edi, 36(%eax)
	movl	8(%esp), %edi
	imull	%ecx, %ebx
	cmpl	$1, 12(%esi)
	leal	(%edi,%ebx,4), %ebp
	movl	%ebp, 32(%eax)
	jle	.L607
	addl	108(%esp), %ebx
	movl	%eax, (%edi,%ebx,4)
.L607:
	addl	$1, %ecx
	cmpl	%ecx, 100(%esp)
	jne	.L608
.L604:
	addl	$76, %esp
	.cfi_def_cfa_offset 20
	popl	%ebx
	.cfi_restore 3
	.cfi_def_cfa_offset 16
	popl	%esi
	.cfi_restore 6
	.cfi_def_cfa_offset 12
	popl	%edi
	.cfi_restore 7
	.cfi_def_cfa_offset 8
	popl	%ebp
	.cfi_restore 5
	.cfi_def_cfa_offset 4
	ret
	.cfi_endproc
.LFE91:
	.size	__alnk_init_tev_dat, .-__alnk_init_tev_dat
	.p2align 4,,15
	.globl	__alnk_init_tev_dat_nodelay
	.type	__alnk_init_tev_dat_nodelay, @function
__alnk_init_tev_dat_nodelay:
.LFB92:
	.cfi_startproc
	pushl	%ebp
	.cfi_def_cfa_offset 8
	.cfi_offset 5, -8
	pushl	%edi
	.cfi_def_cfa_offset 12
	.cfi_offset 7, -12
	call	__x86.get_pc_thunk.dx
	addl	$_GLOBAL_OFFSET_TABLE_, %edx
	pushl	%esi
	.cfi_def_cfa_offset 16
	.cfi_offset 6, -16
	pushl	%ebx
	.cfi_def_cfa_offset 20
	.cfi_offset 3, -20
	subl	$60, %esp
	.cfi_def_cfa_offset 80
	movl	__init_mdp@GOT(%edx), %ecx
	movl	80(%esp), %eax
	movl	(%ecx), %esi
	movl	__tevdat_template@GOTOFF(%edx), %ecx
	movl	%ecx, (%eax)
	movl	4+__tevdat_template@GOTOFF(%edx), %ecx
	movl	%ecx, 4(%eax)
	movl	8+__tevdat_template@GOTOFF(%edx), %ecx
	movl	%ecx, 8(%eax)
	movl	12+__tevdat_template@GOTOFF(%edx), %ecx
	movl	%ecx, 12(%eax)
	movl	16+__tevdat_template@GOTOFF(%edx), %ecx
	movl	%ecx, 16(%eax)
	movl	20+__tevdat_template@GOTOFF(%edx), %ecx
	movl	%ecx, 20(%eax)
	movl	24+__tevdat_template@GOTOFF(%edx), %ecx
	movl	%ecx, 24(%eax)
	movl	28+__tevdat_template@GOTOFF(%edx), %ecx
	movl	%ecx, 28(%eax)
	movl	32+__tevdat_template@GOTOFF(%edx), %ecx
	movl	%ecx, 32(%eax)
	movl	36+__tevdat_template@GOTOFF(%edx), %ecx
	movl	%ecx, 36(%eax)
	movl	40+__tevdat_template@GOTOFF(%edx), %ecx
	movl	%ecx, 40(%eax)
	movl	44+__tevdat_template@GOTOFF(%edx), %ecx
	movl	%ecx, 44(%eax)
	movl	48+__tevdat_template@GOTOFF(%edx), %ecx
	movl	%ecx, 48(%eax)
	movl	52+__tevdat_template@GOTOFF(%edx), %ecx
	movl	%ecx, 52(%eax)
	movl	56+__tevdat_template@GOTOFF(%edx), %ecx
	movl	%ecx, 56(%eax)
	movl	88(%esp), %ecx
	cmpl	$1, 12(%esi)
	movl	%ecx, 12(%eax)
	movl	260(%esi), %ecx
	movl	%ecx, (%esp)
	movl	%ecx, 32(%eax)
	jle	.L612
	movl	92(%esp), %edi
	movl	%eax, (%ecx,%edi,4)
.L612:
	cmpl	$1, 84(%esp)
	jle	.L611
	leal	__tevdat_template@GOTOFF, %edi
	leal	48+__tevdat_template@GOTOFF, %ebx
	leal	52+__tevdat_template@GOTOFF, %ebp
	movl	$1, %ecx
	movl	%edi, 32(%esp)
	leal	4+__tevdat_template@GOTOFF, %edi
	movl	%ebx, 40(%esp)
	movl	%edi, 16(%esp)
	leal	8+__tevdat_template@GOTOFF, %edi
	movl	%edi, 24(%esp)
	leal	12+__tevdat_template@GOTOFF, %edi
	movl	%edi, 36(%esp)
	leal	16+__tevdat_template@GOTOFF, %edi
	movl	%edi, 44(%esp)
	leal	20+__tevdat_template@GOTOFF, %edi
	movl	%edi, 48(%esp)
	leal	24+__tevdat_template@GOTOFF, %edi
	movl	%edi, 52(%esp)
	leal	28+__tevdat_template@GOTOFF, %edi
	movl	%edi, 4(%esp)
	leal	32+__tevdat_template@GOTOFF, %edi
	movl	%edi, 8(%esp)
	leal	36+__tevdat_template@GOTOFF, %edi
	movl	%edi, 12(%esp)
	leal	40+__tevdat_template@GOTOFF, %edi
	movl	%edi, 20(%esp)
	leal	44+__tevdat_template@GOTOFF, %edi
	movl	%edi, 28(%esp)
	leal	56+__tevdat_template@GOTOFF, %edi
	movl	%edi, 56(%esp)
	.p2align 4,,10
	.p2align 3
.L615:
	movl	32(%esp), %edi
	addl	$60, %eax
	movl	(%edi,%edx), %ebx
	movl	16(%esp), %edi
	movl	%ebx, (%eax)
	movl	(%edi,%edx), %ebx
	movl	24(%esp), %edi
	movl	%ebx, 4(%eax)
	movl	(%edi,%edx), %ebx
	movl	36(%esp), %edi
	movl	%ebx, 8(%eax)
	movl	(%edi,%edx), %ebx
	movl	44(%esp), %edi
	movl	%ebx, 12(%eax)
	movl	(%edi,%edx), %ebx
	movl	48(%esp), %edi
	movl	%ebx, 16(%eax)
	movl	(%edi,%edx), %ebx
	movl	52(%esp), %edi
	movl	%ebx, 20(%eax)
	movl	(%edi,%edx), %ebx
	movl	4(%esp), %edi
	movl	%ebx, 24(%eax)
	movl	(%edi,%edx), %ebx
	movl	8(%esp), %edi
	movl	%ebx, 28(%eax)
	movl	(%edi,%edx), %ebx
	movl	12(%esp), %edi
	movl	%ebx, 32(%eax)
	movl	(%edi,%edx), %ebx
	movl	20(%esp), %edi
	movl	%ebx, 36(%eax)
	movl	(%edi,%edx), %ebx
	movl	%ebx, 40(%eax)
	movl	28(%esp), %edi
	movl	(%edi,%edx), %ebx
	movl	40(%esp), %edi
	movl	%ebx, 44(%eax)
	movl	(%edi,%edx), %ebx
	movl	88(%esp), %edi
	movl	%ebx, 48(%eax)
	movl	0(%ebp,%edx), %ebx
	movl	%ebx, 52(%eax)
	movl	56(%esp), %ebx
	movl	(%ebx,%edx), %ebx
	movl	%edi, 12(%eax)
	movl	(%esp), %edi
	movl	%ebx, 56(%eax)
	movl	264(%esi), %ebx
	imull	%ecx, %ebx
	cmpl	$1, 12(%esi)
	leal	(%edi,%ebx,4), %edi
	movl	%edi, 32(%eax)
	jle	.L614
	addl	92(%esp), %ebx
	movl	(%esp), %edi
	movl	%eax, (%edi,%ebx,4)
.L614:
	addl	$1, %ecx
	cmpl	%ecx, 84(%esp)
	jne	.L615
.L611:
	addl	$60, %esp
	.cfi_def_cfa_offset 20
	popl	%ebx
	.cfi_restore 3
	.cfi_def_cfa_offset 16
	popl	%esi
	.cfi_restore 6
	.cfi_def_cfa_offset 12
	popl	%edi
	.cfi_restore 7
	.cfi_def_cfa_offset 8
	popl	%ebp
	.cfi_restore 5
	.cfi_def_cfa_offset 4
	ret
	.cfi_endproc
.LFE92:
	.size	__alnk_init_tev_dat_nodelay, .-__alnk_init_tev_dat_nodelay
	.p2align 4,,15
	.globl	__alnk_init_nchglst_el
	.type	__alnk_init_nchglst_el, @function
__alnk_init_nchglst_el:
.LFB93:
	.cfi_startproc
	call	__x86.get_pc_thunk.ax
	addl	$_GLOBAL_OFFSET_TABLE_, %eax
	pushl	%ebp
	.cfi_def_cfa_offset 8
	.cfi_offset 5, -8
	pushl	%edi
	.cfi_def_cfa_offset 12
	.cfi_offset 7, -12
	movl	__init_mdp@GOT(%eax), %ecx
	pushl	%esi
	.cfi_def_cfa_offset 16
	.cfi_offset 6, -16
	pushl	%ebx
	.cfi_def_cfa_offset 20
	.cfi_offset 3, -20
	movl	20(%esp), %edx
	movl	(%ecx), %esi
	movl	__nchglst_template@GOTOFF(%eax), %ecx
	movl	%ecx, (%edx)
	movl	4+__nchglst_template@GOTOFF(%eax), %ecx
	movl	%ecx, 4(%edx)
	movl	8+__nchglst_template@GOTOFF(%eax), %ecx
	movl	%ecx, 8(%edx)
	movl	12+__nchglst_template@GOTOFF(%eax), %ecx
	movl	%ecx, 12(%edx)
	movl	16+__nchglst_template@GOTOFF(%eax), %ecx
	movl	%ecx, 16(%edx)
	movl	20+__nchglst_template@GOTOFF(%eax), %ecx
	movl	%ecx, 20(%edx)
	movl	24+__nchglst_template@GOTOFF(%eax), %ecx
	movl	%ecx, 24(%edx)
	movl	28+__nchglst_template@GOTOFF(%eax), %eax
	movl	%eax, 28(%edx)
	movl	24(%esp), %eax
	movl	260(%esi), %edi
	movl	%eax, 4(%edx)
	imull	$136, 28(%esp), %eax
	addl	152(%esi), %eax
	cmpl	$-1, 32(%esp)
	movl	%edi, 24(%edx)
	movl	%eax, 20(%edx)
	je	.L619
	movl	32(%esp), %eax
	movl	%edx, (%edi,%eax,4)
.L619:
	cmpl	$1, 12(%esi)
	jle	.L618
	leal	32(%edx), %eax
	movl	$1, %ecx
	.p2align 4,,10
	.p2align 3
.L622:
	movl	(%edx), %ebx
	movl	%ebx, (%eax)
	movl	4(%edx), %ebx
	movl	%ebx, 4(%eax)
	movl	8(%edx), %ebx
	movl	%ebx, 8(%eax)
	movl	12(%edx), %ebx
	movl	%ebx, 12(%eax)
	movl	16(%edx), %ebx
	movl	%ebx, 16(%eax)
	movl	20(%edx), %ebx
	movl	%ebx, 20(%eax)
	movl	24(%edx), %ebx
	movl	%ebx, 24(%eax)
	movl	28(%edx), %ebx
	movl	%ebx, 28(%eax)
	movl	264(%esi), %ebx
	imull	%ecx, %ebx
	cmpl	$-1, 32(%esp)
	leal	(%edi,%ebx,4), %ebp
	movl	%ebp, 24(%eax)
	je	.L621
	addl	32(%esp), %ebx
	movl	%eax, (%edi,%ebx,4)
.L621:
	addl	$1, %ecx
	addl	$32, %eax
	cmpl	%ecx, 12(%esi)
	jg	.L622
.L618:
	popl	%ebx
	.cfi_restore 3
	.cfi_def_cfa_offset 16
	popl	%esi
	.cfi_restore 6
	.cfi_def_cfa_offset 12
	popl	%edi
	.cfi_restore 7
	.cfi_def_cfa_offset 8
	popl	%ebp
	.cfi_restore 5
	.cfi_def_cfa_offset 4
	ret
	.cfi_endproc
.LFE93:
	.size	__alnk_init_nchglst_el, .-__alnk_init_nchglst_el
	.p2align 4,,15
	.globl	__alnk_init_nchglst_el_npp
	.type	__alnk_init_nchglst_el_npp, @function
__alnk_init_nchglst_el_npp:
.LFB94:
	.cfi_startproc
	call	__x86.get_pc_thunk.ax
	addl	$_GLOBAL_OFFSET_TABLE_, %eax
	pushl	%ebp
	.cfi_def_cfa_offset 8
	.cfi_offset 5, -8
	pushl	%edi
	.cfi_def_cfa_offset 12
	.cfi_offset 7, -12
	movl	__init_mdp@GOT(%eax), %ecx
	pushl	%esi
	.cfi_def_cfa_offset 16
	.cfi_offset 6, -16
	pushl	%ebx
	.cfi_def_cfa_offset 20
	.cfi_offset 3, -20
	movl	20(%esp), %edx
	movl	(%ecx), %esi
	movl	__nchglst_template@GOTOFF(%eax), %ecx
	movl	%ecx, (%edx)
	movl	4+__nchglst_template@GOTOFF(%eax), %ecx
	movl	%ecx, 4(%edx)
	movl	8+__nchglst_template@GOTOFF(%eax), %ecx
	movl	%ecx, 8(%edx)
	movl	12+__nchglst_template@GOTOFF(%eax), %ecx
	movl	%ecx, 12(%edx)
	movl	16+__nchglst_template@GOTOFF(%eax), %ecx
	movl	%ecx, 16(%edx)
	movl	20+__nchglst_template@GOTOFF(%eax), %ecx
	movl	%ecx, 20(%edx)
	movl	24+__nchglst_template@GOTOFF(%eax), %ecx
	movl	%ecx, 24(%edx)
	movl	28+__nchglst_template@GOTOFF(%eax), %eax
	movl	36(%esp), %ecx
	movl	%eax, 28(%edx)
	movl	24(%esp), %eax
	movl	260(%esi), %edi
	movl	%eax, 4(%edx)
	imull	$136, 28(%esp), %eax
	addl	152(%esi), %eax
	movl	%eax, 20(%edx)
	movl	%ecx, 92(%eax)
	movl	%edi, 24(%edx)
	cmpl	$-1, 32(%esp)
	je	.L632
	movl	32(%esp), %eax
	movl	%edx, (%edi,%eax,4)
.L632:
	cmpl	$1, 12(%esi)
	jle	.L631
	leal	32(%edx), %eax
	movl	$1, %ecx
	.p2align 4,,10
	.p2align 3
.L635:
	movl	(%edx), %ebx
	movl	%ebx, (%eax)
	movl	4(%edx), %ebx
	movl	%ebx, 4(%eax)
	movl	8(%edx), %ebx
	movl	%ebx, 8(%eax)
	movl	12(%edx), %ebx
	movl	%ebx, 12(%eax)
	movl	16(%edx), %ebx
	movl	%ebx, 16(%eax)
	movl	20(%edx), %ebx
	movl	%ebx, 20(%eax)
	movl	24(%edx), %ebx
	movl	%ebx, 24(%eax)
	movl	28(%edx), %ebx
	movl	%ebx, 28(%eax)
	movl	264(%esi), %ebx
	imull	%ecx, %ebx
	cmpl	$-1, 32(%esp)
	leal	(%edi,%ebx,4), %ebp
	movl	%ebp, 24(%eax)
	je	.L634
	addl	32(%esp), %ebx
	movl	%eax, (%edi,%ebx,4)
.L634:
	addl	$1, %ecx
	addl	$32, %eax
	cmpl	%ecx, 12(%esi)
	jg	.L635
.L631:
	popl	%ebx
	.cfi_restore 3
	.cfi_def_cfa_offset 16
	popl	%esi
	.cfi_restore 6
	.cfi_def_cfa_offset 12
	popl	%edi
	.cfi_restore 7
	.cfi_def_cfa_offset 8
	popl	%ebp
	.cfi_restore 5
	.cfi_def_cfa_offset 4
	ret
	.cfi_endproc
.LFE94:
	.size	__alnk_init_nchglst_el_npp, .-__alnk_init_nchglst_el_npp
	.p2align 4,,15
	.globl	__alnk_init_nchglst_el_rng
	.type	__alnk_init_nchglst_el_rng, @function
__alnk_init_nchglst_el_rng:
.LFB95:
	.cfi_startproc
	call	__x86.get_pc_thunk.ax
	addl	$_GLOBAL_OFFSET_TABLE_, %eax
	pushl	%ebp
	.cfi_def_cfa_offset 8
	.cfi_offset 5, -8
	pushl	%edi
	.cfi_def_cfa_offset 12
	.cfi_offset 7, -12
	movl	__init_mdp@GOT(%eax), %ecx
	pushl	%esi
	.cfi_def_cfa_offset 16
	.cfi_offset 6, -16
	pushl	%ebx
	.cfi_def_cfa_offset 20
	.cfi_offset 3, -20
	movl	20(%esp), %edx
	movl	(%ecx), %esi
	movl	__nchglst_template@GOTOFF(%eax), %ecx
	movl	%ecx, (%edx)
	movl	4+__nchglst_template@GOTOFF(%eax), %ecx
	movl	%ecx, 4(%edx)
	movl	8+__nchglst_template@GOTOFF(%eax), %ecx
	movl	%ecx, 8(%edx)
	movl	12+__nchglst_template@GOTOFF(%eax), %ecx
	movl	%ecx, 12(%edx)
	movl	16+__nchglst_template@GOTOFF(%eax), %ecx
	movl	%ecx, 16(%edx)
	movl	20+__nchglst_template@GOTOFF(%eax), %ecx
	movl	%ecx, 20(%edx)
	movl	24+__nchglst_template@GOTOFF(%eax), %ecx
	movl	%ecx, 24(%edx)
	movl	28+__nchglst_template@GOTOFF(%eax), %eax
	movl	%eax, 28(%edx)
	movl	24(%esp), %eax
	movl	%eax, 4(%edx)
	movl	36(%esp), %eax
	movl	%eax, 12(%edx)
	movl	40(%esp), %eax
	movl	%eax, 16(%edx)
	imull	$136, 28(%esp), %eax
	addl	152(%esi), %eax
	movl	%eax, 20(%edx)
	movl	260(%esi), %edi
	cmpl	$-1, 32(%esp)
	movl	%edi, 24(%edx)
	je	.L645
	movl	32(%esp), %eax
	movl	%edx, (%edi,%eax,4)
.L645:
	cmpl	$1, 12(%esi)
	jle	.L644
	leal	32(%edx), %eax
	movl	$1, %ecx
	.p2align 4,,10
	.p2align 3
.L648:
	movl	(%edx), %ebx
	movl	%ebx, (%eax)
	movl	4(%edx), %ebx
	movl	%ebx, 4(%eax)
	movl	8(%edx), %ebx
	movl	%ebx, 8(%eax)
	movl	12(%edx), %ebx
	movl	%ebx, 12(%eax)
	movl	16(%edx), %ebx
	movl	%ebx, 16(%eax)
	movl	20(%edx), %ebx
	movl	%ebx, 20(%eax)
	movl	24(%edx), %ebx
	movl	%ebx, 24(%eax)
	movl	28(%edx), %ebx
	movl	%ebx, 28(%eax)
	movl	264(%esi), %ebx
	imull	%ecx, %ebx
	cmpl	$-1, 32(%esp)
	leal	(%edi,%ebx,4), %ebp
	movl	%ebp, 24(%eax)
	je	.L647
	addl	32(%esp), %ebx
	movl	%eax, (%edi,%ebx,4)
.L647:
	addl	$1, %ecx
	addl	$32, %eax
	cmpl	%ecx, 12(%esi)
	jg	.L648
.L644:
	popl	%ebx
	.cfi_restore 3
	.cfi_def_cfa_offset 16
	popl	%esi
	.cfi_restore 6
	.cfi_def_cfa_offset 12
	popl	%edi
	.cfi_restore 7
	.cfi_def_cfa_offset 8
	popl	%ebp
	.cfi_restore 5
	.cfi_def_cfa_offset 4
	ret
	.cfi_endproc
.LFE95:
	.size	__alnk_init_nchglst_el_rng, .-__alnk_init_nchglst_el_rng
	.p2align 4,,15
	.globl	__alnk_init_nchglst_el_rng_npp
	.type	__alnk_init_nchglst_el_rng_npp, @function
__alnk_init_nchglst_el_rng_npp:
.LFB96:
	.cfi_startproc
	call	__x86.get_pc_thunk.ax
	addl	$_GLOBAL_OFFSET_TABLE_, %eax
	pushl	%ebp
	.cfi_def_cfa_offset 8
	.cfi_offset 5, -8
	pushl	%edi
	.cfi_def_cfa_offset 12
	.cfi_offset 7, -12
	movl	__init_mdp@GOT(%eax), %ecx
	pushl	%esi
	.cfi_def_cfa_offset 16
	.cfi_offset 6, -16
	pushl	%ebx
	.cfi_def_cfa_offset 20
	.cfi_offset 3, -20
	movl	20(%esp), %edx
	movl	(%ecx), %esi
	movl	__nchglst_template@GOTOFF(%eax), %ecx
	movl	%ecx, (%edx)
	movl	4+__nchglst_template@GOTOFF(%eax), %ecx
	movl	%ecx, 4(%edx)
	movl	8+__nchglst_template@GOTOFF(%eax), %ecx
	movl	%ecx, 8(%edx)
	movl	12+__nchglst_template@GOTOFF(%eax), %ecx
	movl	%ecx, 12(%edx)
	movl	16+__nchglst_template@GOTOFF(%eax), %ecx
	movl	%ecx, 16(%edx)
	movl	20+__nchglst_template@GOTOFF(%eax), %ecx
	movl	%ecx, 20(%edx)
	movl	24+__nchglst_template@GOTOFF(%eax), %ecx
	movl	%ecx, 24(%edx)
	movl	28+__nchglst_template@GOTOFF(%eax), %eax
	movl	%eax, 28(%edx)
	movl	24(%esp), %eax
	movl	%eax, 4(%edx)
	movl	36(%esp), %eax
	movl	%eax, 12(%edx)
	movl	40(%esp), %eax
	movl	%eax, 16(%edx)
	imull	$136, 28(%esp), %eax
	addl	152(%esi), %eax
	movl	%eax, 20(%edx)
	movl	44(%esp), %ecx
	cmpl	$-1, 32(%esp)
	movl	260(%esi), %edi
	movl	%ecx, 92(%eax)
	movl	%edi, 24(%edx)
	je	.L658
	movl	32(%esp), %eax
	movl	%edx, (%edi,%eax,4)
.L658:
	cmpl	$1, 12(%esi)
	jle	.L657
	leal	32(%edx), %eax
	movl	$1, %ecx
	.p2align 4,,10
	.p2align 3
.L661:
	movl	(%edx), %ebx
	movl	%ebx, (%eax)
	movl	4(%edx), %ebx
	movl	%ebx, 4(%eax)
	movl	8(%edx), %ebx
	movl	%ebx, 8(%eax)
	movl	12(%edx), %ebx
	movl	%ebx, 12(%eax)
	movl	16(%edx), %ebx
	movl	%ebx, 16(%eax)
	movl	20(%edx), %ebx
	movl	%ebx, 20(%eax)
	movl	24(%edx), %ebx
	movl	%ebx, 24(%eax)
	movl	28(%edx), %ebx
	movl	%ebx, 28(%eax)
	movl	264(%esi), %ebx
	imull	%ecx, %ebx
	cmpl	$-1, 32(%esp)
	leal	(%edi,%ebx,4), %ebp
	movl	%ebp, 24(%eax)
	je	.L660
	addl	32(%esp), %ebx
	movl	%eax, (%edi,%ebx,4)
.L660:
	addl	$1, %ecx
	addl	$32, %eax
	cmpl	%ecx, 12(%esi)
	jg	.L661
.L657:
	popl	%ebx
	.cfi_restore 3
	.cfi_def_cfa_offset 16
	popl	%esi
	.cfi_restore 6
	.cfi_def_cfa_offset 12
	popl	%edi
	.cfi_restore 7
	.cfi_def_cfa_offset 8
	popl	%ebp
	.cfi_restore 5
	.cfi_def_cfa_offset 4
	ret
	.cfi_endproc
.LFE96:
	.size	__alnk_init_nchglst_el_rng_npp, .-__alnk_init_nchglst_el_rng_npp
	.p2align 4,,15
	.globl	__alnk_set_tev_gp_u
	.type	__alnk_set_tev_gp_u, @function
__alnk_set_tev_gp_u:
.LFB97:
	.cfi_startproc
	pushl	%esi
	.cfi_def_cfa_offset 8
	.cfi_offset 6, -8
	pushl	%ebx
	.cfi_def_cfa_offset 12
	.cfi_offset 3, -12
	movl	20(%esp), %ecx
	movl	12(%esp), %ebx
	call	__x86.get_pc_thunk.dx
	addl	$_GLOBAL_OFFSET_TABLE_, %edx
	movl	16(%esp), %eax
	testl	%ecx, %ecx
	jle	.L670
	movl	__init_mdp@GOT(%edx), %edx
	imull	$60, %ecx, %ecx
	movl	(%edx), %esi
	leal	(%eax,%eax,2), %edx
	leal	4(%ebx), %eax
	leal	4(%ebx,%ecx), %ecx
	sall	$4, %edx
	addl	132(%esi), %edx
	.p2align 4,,10
	.p2align 3
.L672:
	movl	%edx, (%eax)
	addl	$60, %eax
	cmpl	%ecx, %eax
	jne	.L672
.L670:
	popl	%ebx
	.cfi_restore 3
	.cfi_def_cfa_offset 8
	popl	%esi
	.cfi_restore 6
	.cfi_def_cfa_offset 4
	ret
	.cfi_endproc
.LFE97:
	.size	__alnk_set_tev_gp_u, .-__alnk_set_tev_gp_u
	.p2align 4,,15
	.globl	__alnk_set_tev_nxtptr
	.type	__alnk_set_tev_nxtptr, @function
__alnk_set_tev_nxtptr:
.LFB98:
	.cfi_startproc
	call	__x86.get_pc_thunk.ax
	addl	$_GLOBAL_OFFSET_TABLE_, %eax
	movl	__process_next_ev_enterp@GOT(%eax), %eax
	movl	(%eax), %edx
	movl	4(%esp), %eax
	movl	%edx, 16(%eax)
	ret
	.cfi_endproc
.LFE98:
	.size	__alnk_set_tev_nxtptr, .-__alnk_set_tev_nxtptr
	.p2align 4,,15
	.globl	__alnk_set_tev_nb_free_nextevptr
	.type	__alnk_set_tev_nb_free_nextevptr, @function
__alnk_set_tev_nb_free_nextevptr:
.LFB99:
	.cfi_startproc
	pushl	%ebx
	.cfi_def_cfa_offset 8
	.cfi_offset 3, -8
	movl	16(%esp), %ecx
	movl	8(%esp), %ebx
	movl	12(%esp), %edx
	testl	%ecx, %ecx
	jle	.L676
	imull	$60, %ecx, %ecx
	leal	16(%ebx), %eax
	leal	16(%ebx,%ecx), %ecx
	.p2align 4,,10
	.p2align 3
.L678:
	movl	%edx, (%eax)
	addl	$60, %eax
	cmpl	%ecx, %eax
	jne	.L678
.L676:
	popl	%ebx
	.cfi_restore 3
	.cfi_def_cfa_offset 4
	ret
	.cfi_endproc
.LFE99:
	.size	__alnk_set_tev_nb_free_nextevptr, .-__alnk_set_tev_nb_free_nextevptr
	.p2align 4,,15
	.globl	__alnk_tev_set_tu_nbrhs
	.type	__alnk_tev_set_tu_nbrhs, @function
__alnk_tev_set_tu_nbrhs:
.LFB100:
	.cfi_startproc
	pushl	%esi
	.cfi_def_cfa_offset 8
	.cfi_offset 6, -8
	pushl	%ebx
	.cfi_def_cfa_offset 12
	.cfi_offset 3, -12
	movl	20(%esp), %eax
	movl	24(%esp), %ebx
	movl	12(%esp), %esi
	leal	7(%eax), %ecx
	testl	%eax, %eax
	cmovns	%eax, %ecx
	sall	$2, %ecx
	sarl	$5, %ecx
	testl	%ebx, %ebx
	jle	.L681
	imull	$60, %ebx, %ebx
	movl	16(%esp), %edx
	leal	4(%esi), %eax
	sall	$3, %ecx
	leal	4(%esi,%ebx), %ebx
	.p2align 4,,10
	.p2align 3
.L683:
	movl	%edx, (%eax)
	addl	$60, %eax
	addl	%ecx, %edx
	cmpl	%ebx, %eax
	jne	.L683
.L681:
	popl	%ebx
	.cfi_restore 3
	.cfi_def_cfa_offset 8
	popl	%esi
	.cfi_restore 6
	.cfi_def_cfa_offset 4
	ret
	.cfi_endproc
.LFE100:
	.size	__alnk_tev_set_tu_nbrhs, .-__alnk_tev_set_tu_nbrhs
	.p2align 4,,15
	.globl	__alnk_tev_set_tu_nbrhs_2s
	.type	__alnk_tev_set_tu_nbrhs_2s, @function
__alnk_tev_set_tu_nbrhs_2s:
.LFB101:
	.cfi_startproc
	pushl	%esi
	.cfi_def_cfa_offset 8
	.cfi_offset 6, -8
	pushl	%ebx
	.cfi_def_cfa_offset 12
	.cfi_offset 3, -12
	movl	20(%esp), %eax
	movl	24(%esp), %ebx
	movl	12(%esp), %esi
	leal	3(%eax), %ecx
	testl	%eax, %eax
	cmovns	%eax, %ecx
	sall	$3, %ecx
	sarl	$5, %ecx
	testl	%ebx, %ebx
	jle	.L686
	imull	$60, %ebx, %ebx
	movl	16(%esp), %edx
	leal	4(%esi), %eax
	sall	$2, %ecx
	leal	4(%esi,%ebx), %ebx
	.p2align 4,,10
	.p2align 3
.L688:
	movl	%edx, (%eax)
	addl	$60, %eax
	addl	%ecx, %edx
	cmpl	%ebx, %eax
	jne	.L688
.L686:
	popl	%ebx
	.cfi_restore 3
	.cfi_def_cfa_offset 8
	popl	%esi
	.cfi_restore 6
	.cfi_def_cfa_offset 4
	ret
	.cfi_endproc
.LFE101:
	.size	__alnk_tev_set_tu_nbrhs_2s, .-__alnk_tev_set_tu_nbrhs_2s
	.p2align 4,,15
	.globl	__alnk_set_tev_del
	.type	__alnk_set_tev_del, @function
__alnk_set_tev_del:
.LFB102:
	.cfi_startproc
	pushl	%esi
	.cfi_def_cfa_offset 8
	.cfi_offset 6, -8
	pushl	%ebx
	.cfi_def_cfa_offset 12
	.cfi_offset 3, -12
	movl	24(%esp), %edx
	movl	12(%esp), %esi
	movl	16(%esp), %ecx
	movl	20(%esp), %ebx
	testl	%edx, %edx
	jle	.L691
	imull	$60, %edx, %edx
	leal	36(%esi), %eax
	leal	36(%esi,%edx), %edx
	.p2align 4,,10
	.p2align 3
.L693:
	movl	%ecx, (%eax)
	movl	%ebx, 4(%eax)
	addl	$60, %eax
	cmpl	%edx, %eax
	jne	.L693
.L691:
	popl	%ebx
	.cfi_restore 3
	.cfi_def_cfa_offset 8
	popl	%esi
	.cfi_restore 6
	.cfi_def_cfa_offset 4
	ret
	.cfi_endproc
.LFE102:
	.size	__alnk_set_tev_del, .-__alnk_set_tev_del
	.p2align 4,,15
	.globl	__alnk_cp_is1v_32b_tev_dels
	.type	__alnk_cp_is1v_32b_tev_dels, @function
__alnk_cp_is1v_32b_tev_dels:
.LFB103:
	.cfi_startproc
	pushl	%ebx
	.cfi_def_cfa_offset 8
	.cfi_offset 3, -8
	movl	16(%esp), %ecx
	movl	8(%esp), %ebx
	cmpl	$1, %ecx
	jle	.L696
	movl	12(%esp), %eax
	imull	$60, %ecx, %ecx
	leal	4(%eax), %edx
	leal	96(%ebx), %eax
	leal	36(%ebx,%ecx), %ecx
	.p2align 4,,10
	.p2align 3
.L698:
	movl	(%edx), %ebx
	addl	$60, %eax
	movl	$0, -56(%eax)
	addl	$4, %edx
	movl	%ebx, -60(%eax)
	cmpl	%ecx, %eax
	jne	.L698
.L696:
	popl	%ebx
	.cfi_restore 3
	.cfi_def_cfa_offset 4
	ret
	.cfi_endproc
.LFE103:
	.size	__alnk_cp_is1v_32b_tev_dels, .-__alnk_cp_is1v_32b_tev_dels
	.p2align 4,,15
	.globl	__alnk_set_trchan_vtx_nchgs
	.type	__alnk_set_trchan_vtx_nchgs, @function
__alnk_set_trchan_vtx_nchgs:
.LFB104:
	.cfi_startproc
	pushl	%ebp
	.cfi_def_cfa_offset 8
	.cfi_offset 5, -8
	pushl	%edi
	.cfi_def_cfa_offset 12
	.cfi_offset 7, -12
	pushl	%esi
	.cfi_def_cfa_offset 16
	.cfi_offset 6, -16
	pushl	%ebx
	.cfi_def_cfa_offset 20
	.cfi_offset 3, -20
	call	__x86.get_pc_thunk.bx
	addl	$_GLOBAL_OFFSET_TABLE_, %ebx
	subl	$60, %esp
	.cfi_def_cfa_offset 80
	movl	__init_mdp@GOT(%ebx), %eax
	movl	(%eax), %eax
	movl	152(%eax), %ecx
	movl	%eax, 40(%esp)
	movl	%ecx, 4(%esp)
	movl	36(%eax), %ecx
	testl	%ecx, %ecx
	jle	.L701
	movl	__chantab@GOT(%ebx), %eax
	movl	$0, 44(%esp)
	movl	%eax, 36(%esp)
	.p2align 4,,10
	.p2align 3
.L717:
	movl	4(%esp), %eax
	movl	52(%eax), %eax
	testl	%eax, %eax
	movl	%eax, 28(%esp)
	je	.L703
	movl	4(%eax), %eax
	movl	36(%esp), %edi
	movl	(%eax), %eax
	movl	(%eax), %eax
	leal	(%eax,%eax,4), %eax
	sall	$2, %eax
	addl	(%edi), %eax
	testb	$64, (%eax)
	jne	.L703
	movl	40(%esp), %eax
	movl	12(%eax), %edx
	testl	%edx, %edx
	jle	.L703
	movl	$0, 24(%esp)
	.p2align 4,,10
	.p2align 3
.L716:
	movl	40(%esp), %eax
	movl	24(%esp), %ecx
	movl	160(%eax), %eax
	movl	(%eax,%ecx,4), %eax
	movl	4(%eax), %eax
	movl	%eax, 32(%esp)
	movl	4(%esp), %eax
	movl	8(%eax), %eax
	movl	%eax, %ecx
	subl	$1, %ecx
	movl	%ecx, 8(%esp)
	js	.L704
	.p2align 4,,10
	.p2align 3
.L715:
	imull	24(%esp), %eax
	movl	28(%esp), %esi
	movl	8(%esp), %ecx
	movl	4(%esi), %edx
	addl	%ecx, %eax
	movl	(%edx,%eax,4), %eax
	testl	%eax, %eax
	movl	%eax, 16(%esp)
	je	.L705
	movl	(%eax), %eax
	leal	(%eax,%eax,4), %edx
	movl	36(%esp), %eax
	movl	(%eax), %eax
	leal	(%eax,%edx,4), %eax
	movl	%eax, 12(%esp)
	movl	4(%esp), %eax
	testb	$4, 2(%eax)
	je	.L706
	subl	$4, %esp
	.cfi_def_cfa_offset 84
	pushl	%ecx
	.cfi_def_cfa_offset 88
	pushl	%ecx
	.cfi_def_cfa_offset 92
	pushl	%eax
	.cfi_def_cfa_offset 96
	call	__net_chg_nd_store@PLT
	addl	$16, %esp
	.cfi_def_cfa_offset 80
	testl	%eax, %eax
	jne	.L743
.L708:
	movl	12(%esp), %eax
	movl	12(%eax), %esi
	testl	%esi, %esi
	je	.L705
	movl	16(%eax), %eax
	testl	%eax, %eax
	je	.L705
	xorl	%ebp, %ebp
	jmp	.L714
	.p2align 4,,10
	.p2align 3
.L745:
	movl	4(%esi), %edx
	subl	$4, %esp
	.cfi_def_cfa_offset 84
	pushl	%edx
	.cfi_def_cfa_offset 88
	pushl	%edx
	.cfi_def_cfa_offset 92
	movl	%edx, 32(%esp)
	pushl	%edi
	.cfi_def_cfa_offset 96
	call	__net_chg_nd_store@PLT
	addl	$16, %esp
	.cfi_def_cfa_offset 80
	testl	%eax, %eax
	movl	20(%esp), %edx
	jne	.L744
.L711:
	movl	12(%esp), %eax
	addl	$1, %ebp
	addl	$12, %esi
	cmpl	%ebp, 16(%eax)
	jbe	.L705
.L714:
	movl	(%esi), %edi
	cmpl	4(%esp), %edi
	je	.L711
	testb	$4, 2(%edi)
	jne	.L745
	subl	$4, %esp
	.cfi_def_cfa_offset 84
	pushl	$-1
	.cfi_def_cfa_offset 88
	pushl	$-1
	.cfi_def_cfa_offset 92
	pushl	%edi
	.cfi_def_cfa_offset 96
	call	__net_chg_nd_store@PLT
	addl	$16, %esp
	.cfi_def_cfa_offset 80
	testl	%eax, %eax
	je	.L711
	subl	$12, %esp
	.cfi_def_cfa_offset 92
	movl	%edi, %eax
	movl	$-1, %edx
	pushl	44(%esp)
	.cfi_def_cfa_offset 96
	movl	32(%esp), %ecx
	addl	$1, %ebp
	addl	$12, %esi
	call	set_trchan_1vtx_nchg_fld
	addl	$16, %esp
	.cfi_def_cfa_offset 80
	movl	12(%esp), %eax
	cmpl	%ebp, 16(%eax)
	ja	.L714
	.p2align 4,,10
	.p2align 3
.L705:
	subl	$1, 8(%esp)
	movl	8(%esp), %eax
	cmpl	$-1, %eax
	je	.L704
	movl	4(%esp), %eax
	movl	8(%eax), %eax
	jmp	.L715
	.p2align 4,,10
	.p2align 3
.L706:
	subl	$4, %esp
	.cfi_def_cfa_offset 84
	pushl	$-1
	.cfi_def_cfa_offset 88
	pushl	$-1
	.cfi_def_cfa_offset 92
	pushl	16(%esp)
	.cfi_def_cfa_offset 96
	call	__net_chg_nd_store@PLT
	addl	$16, %esp
	.cfi_def_cfa_offset 80
	testl	%eax, %eax
	je	.L708
	subl	$12, %esp
	.cfi_def_cfa_offset 92
	movl	$-1, %edx
	pushl	44(%esp)
	.cfi_def_cfa_offset 96
	movl	32(%esp), %ecx
	movl	20(%esp), %eax
	call	set_trchan_1vtx_nchg_fld
	addl	$16, %esp
	.cfi_def_cfa_offset 80
	jmp	.L708
	.p2align 4,,10
	.p2align 3
.L744:
	subl	$12, %esp
	.cfi_def_cfa_offset 92
	movl	%edi, %eax
	pushl	44(%esp)
	.cfi_def_cfa_offset 96
	movl	32(%esp), %ecx
	call	set_trchan_1vtx_nchg_fld
	addl	$16, %esp
	.cfi_def_cfa_offset 80
	jmp	.L711
	.p2align 4,,10
	.p2align 3
.L704:
	movl	40(%esp), %edx
	addl	$1, 24(%esp)
	movl	24(%esp), %eax
	cmpl	%eax, 12(%edx)
	jg	.L716
.L703:
	movl	40(%esp), %ecx
	addl	$1, 44(%esp)
	movl	44(%esp), %eax
	addl	$136, 4(%esp)
	cmpl	%eax, 36(%ecx)
	jg	.L717
.L701:
	addl	$60, %esp
	.cfi_remember_state
	.cfi_def_cfa_offset 20
	popl	%ebx
	.cfi_restore 3
	.cfi_def_cfa_offset 16
	popl	%esi
	.cfi_restore 6
	.cfi_def_cfa_offset 12
	popl	%edi
	.cfi_restore 7
	.cfi_def_cfa_offset 8
	popl	%ebp
	.cfi_restore 5
	.cfi_def_cfa_offset 4
	ret
	.p2align 4,,10
	.p2align 3
.L743:
	.cfi_restore_state
	subl	$12, %esp
	.cfi_def_cfa_offset 92
	pushl	44(%esp)
	.cfi_def_cfa_offset 96
	movl	32(%esp), %ecx
	movl	24(%esp), %edx
	movl	20(%esp), %eax
	call	set_trchan_1vtx_nchg_fld
	addl	$16, %esp
	.cfi_def_cfa_offset 80
	jmp	.L708
	.cfi_endproc
.LFE104:
	.size	__alnk_set_trchan_vtx_nchgs, .-__alnk_set_trchan_vtx_nchgs
	.p2align 4,,15
	.globl	__alnk_set_udptab_adrs
	.type	__alnk_set_udptab_adrs, @function
__alnk_set_udptab_adrs:
.LFB106:
	.cfi_startproc
	call	__x86.get_pc_thunk.dx
	addl	$_GLOBAL_OFFSET_TABLE_, %edx
	pushl	%ebx
	.cfi_def_cfa_offset 8
	.cfi_offset 3, -8
	movl	16(%esp), %ecx
	movl	__dsgn_udp_ndx@GOT(%edx), %edx
	movl	12(%esp), %eax
	movl	(%edx), %edx
	testl	%eax, %eax
	movl	(%edx,%ecx,4), %edx
	movl	8(%esp), %ecx
	movl	28(%edx), %edx
	movl	(%edx), %ebx
	movl	%ebx, (%ecx)
	je	.L746
	movl	4(%edx), %edx
	movl	%edx, (%eax)
.L746:
	popl	%ebx
	.cfi_restore 3
	.cfi_def_cfa_offset 4
	ret
	.cfi_endproc
.LFE106:
	.size	__alnk_set_udptab_adrs, .-__alnk_set_udptab_adrs
	.p2align 4,,15
	.globl	__alnk_set_pth_del_adr
	.type	__alnk_set_pth_del_adr, @function
__alnk_set_pth_del_adr:
.LFB107:
	.cfi_startproc
	call	__x86.get_pc_thunk.ax
	addl	$_GLOBAL_OFFSET_TABLE_, %eax
	movl	8(%esp), %edx
	movl	__init_mdp@GOT(%eax), %eax
	movl	(%eax), %eax
	movl	316(%eax), %eax
	movl	(%eax,%edx,4), %eax
	movl	28(%eax), %edx
	movl	4(%esp), %eax
	movl	%edx, (%eax)
	ret
	.cfi_endproc
.LFE107:
	.size	__alnk_set_pth_del_adr, .-__alnk_set_pth_del_adr
	.p2align 4,,15
	.globl	__alnk_set_tchk_tchg_adr
	.type	__alnk_set_tchk_tchg_adr, @function
__alnk_set_tchk_tchg_adr:
.LFB108:
	.cfi_startproc
	pushl	%esi
	.cfi_def_cfa_offset 8
	.cfi_offset 6, -8
	pushl	%ebx
	.cfi_def_cfa_offset 12
	.cfi_offset 3, -12
	call	__x86.get_pc_thunk.bx
	addl	$_GLOBAL_OFFSET_TABLE_, %ebx
	subl	$4, %esp
	.cfi_def_cfa_offset 16
	movl	__init_mdp@GOT(%ebx), %eax
	movl	20(%esp), %edx
	movl	(%eax), %eax
	movl	320(%eax), %eax
	movl	(%eax,%edx,4), %esi
	movzbl	(%esi), %eax
	andl	$-64, %eax
	cmpb	$-128, %al
	je	.L754
	leal	.LC3@GOTOFF(%ebx), %eax
	subl	$8, %esp
	.cfi_def_cfa_offset 24
	pushl	$1275
	.cfi_def_cfa_offset 28
	pushl	%eax
	.cfi_def_cfa_offset 32
	call	__misc_terr@PLT
	addl	$16, %esp
	.cfi_def_cfa_offset 16
.L754:
	movl	16(%esi), %edx
	movl	16(%esp), %eax
	movl	%edx, (%eax)
	addl	$4, %esp
	.cfi_def_cfa_offset 12
	popl	%ebx
	.cfi_restore 3
	.cfi_def_cfa_offset 8
	popl	%esi
	.cfi_restore 6
	.cfi_def_cfa_offset 4
	ret
	.cfi_endproc
.LFE108:
	.size	__alnk_set_tchk_tchg_adr, .-__alnk_set_tchk_tchg_adr
	.p2align 4,,15
	.globl	__alnk_set_stmt_entptr
	.type	__alnk_set_stmt_entptr, @function
__alnk_set_stmt_entptr:
.LFB109:
	.cfi_startproc
	call	__x86.get_pc_thunk.ax
	addl	$_GLOBAL_OFFSET_TABLE_, %eax
	movl	8(%esp), %edx
	movl	__init_mdp@GOT(%eax), %eax
	movl	(%eax), %eax
	movl	304(%eax), %eax
	movl	(%eax,%edx,4), %eax
	movl	4(%esp), %edx
	movl	%edx, 40(%eax)
	ret
	.cfi_endproc
.LFE109:
	.size	__alnk_set_stmt_entptr, .-__alnk_set_stmt_entptr
	.p2align 4,,15
	.globl	__alnk_set_npp_entptr
	.type	__alnk_set_npp_entptr, @function
__alnk_set_npp_entptr:
.LFB110:
	.cfi_startproc
	call	__x86.get_pc_thunk.ax
	addl	$_GLOBAL_OFFSET_TABLE_, %eax
	movl	__init_mdp@GOT(%eax), %eax
	movl	(%eax), %edx
	imull	$136, 8(%esp), %eax
	addl	152(%edx), %eax
	movl	4(%esp), %edx
	movl	%edx, 92(%eax)
	ret
	.cfi_endproc
.LFE110:
	.size	__alnk_set_npp_entptr, .-__alnk_set_npp_entptr
	.p2align 4,,15
	.globl	__alnk_set_dcevnt
	.type	__alnk_set_dcevnt, @function
__alnk_set_dcevnt:
.LFB111:
	.cfi_startproc
	call	__x86.get_pc_thunk.ax
	addl	$_GLOBAL_OFFSET_TABLE_, %eax
	movl	__init_mdp@GOT(%eax), %eax
	movl	(%eax), %edx
	imull	$136, 8(%esp), %eax
	addl	152(%edx), %eax
	movl	12(%esp), %edx
	movl	100(%eax), %eax
	movl	(%eax), %eax
	movl	(%eax,%edx,4), %edx
	movl	4(%esp), %eax
	movl	%edx, (%eax)
	ret
	.cfi_endproc
.LFE111:
	.size	__alnk_set_dcevnt, .-__alnk_set_dcevnt
	.p2align 4,,15
	.globl	__alnk_set_gref
	.type	__alnk_set_gref, @function
__alnk_set_gref:
.LFB112:
	.cfi_startproc
	call	__x86.get_pc_thunk.dx
	addl	$_GLOBAL_OFFSET_TABLE_, %edx
	movl	8(%esp), %eax
	movl	__init_mdp@GOT(%edx), %edx
	movl	(%edx), %ecx
	leal	(%eax,%eax,8), %edx
	movl	312(%ecx), %eax
	leal	(%eax,%edx,8), %edx
	movl	4(%esp), %eax
	movl	%edx, (%eax)
	ret
	.cfi_endproc
.LFE112:
	.size	__alnk_set_gref, .-__alnk_set_gref
	.p2align 4,,15
	.globl	__alnk_set_gate
	.type	__alnk_set_gate, @function
__alnk_set_gate:
.LFB113:
	.cfi_startproc
	call	__x86.get_pc_thunk.dx
	addl	$_GLOBAL_OFFSET_TABLE_, %edx
	movl	8(%esp), %eax
	movl	__init_mdp@GOT(%edx), %edx
	leal	(%eax,%eax,2), %eax
	movl	(%edx), %edx
	sall	$4, %eax
	addl	132(%edx), %eax
	movl	4(%esp), %edx
	movl	%eax, (%edx)
	ret
	.cfi_endproc
.LFE113:
	.size	__alnk_set_gate, .-__alnk_set_gate
	.p2align 4,,15
	.globl	__alnk_set_conta
	.type	__alnk_set_conta, @function
__alnk_set_conta:
.LFB114:
	.cfi_startproc
	call	__x86.get_pc_thunk.dx
	addl	$_GLOBAL_OFFSET_TABLE_, %edx
	movl	8(%esp), %eax
	movl	__init_mdp@GOT(%edx), %edx
	leal	(%eax,%eax,2), %eax
	movl	(%edx), %edx
	sall	$4, %eax
	addl	136(%edx), %eax
	movl	4(%esp), %edx
	movl	%eax, (%edx)
	ret
	.cfi_endproc
.LFE114:
	.size	__alnk_set_conta, .-__alnk_set_conta
	.p2align 4,,15
	.globl	__alnk_set_net_addr
	.type	__alnk_set_net_addr, @function
__alnk_set_net_addr:
.LFB115:
	.cfi_startproc
	call	__x86.get_pc_thunk.ax
	addl	$_GLOBAL_OFFSET_TABLE_, %eax
	movl	__init_mdp@GOT(%eax), %eax
	movl	(%eax), %edx
	imull	$136, 8(%esp), %eax
	addl	152(%edx), %eax
	movl	4(%esp), %edx
	movl	%eax, (%edx)
	ret
	.cfi_endproc
.LFE115:
	.size	__alnk_set_net_addr, .-__alnk_set_net_addr
	.p2align 4,,15
	.globl	__alnk_set_task_addr
	.type	__alnk_set_task_addr, @function
__alnk_set_task_addr:
.LFB116:
	.cfi_startproc
	call	__x86.get_pc_thunk.ax
	addl	$_GLOBAL_OFFSET_TABLE_, %eax
	movl	8(%esp), %ecx
	movl	__init_mdp@GOT(%eax), %eax
	testl	%ecx, %ecx
	movl	(%eax), %eax
	movl	248(%eax), %edx
	jle	.L767
	xorl	%eax, %eax
	.p2align 4,,10
	.p2align 3
.L768:
	addl	$1, %eax
	movl	64(%edx), %edx
	cmpl	%eax, %ecx
	jne	.L768
.L767:
	movl	4(%esp), %eax
	movl	%edx, (%eax)
	ret
	.cfi_endproc
.LFE116:
	.size	__alnk_set_task_addr, .-__alnk_set_task_addr
	.p2align 4,,15
	.globl	__alnk_set_npp_addr
	.type	__alnk_set_npp_addr, @function
__alnk_set_npp_addr:
.LFB117:
	.cfi_startproc
	call	__x86.get_pc_thunk.ax
	addl	$_GLOBAL_OFFSET_TABLE_, %eax
	movl	8(%esp), %edx
	movl	__init_mdp@GOT(%eax), %eax
	movl	(%eax), %eax
	movl	320(%eax), %eax
	movl	(%eax,%edx,4), %edx
	movl	4(%esp), %eax
	movl	%edx, (%eax)
	ret
	.cfi_endproc
.LFE117:
	.size	__alnk_set_npp_addr, .-__alnk_set_npp_addr
	.p2align 4,,15
	.globl	__alnk_set_xpr_addr
	.type	__alnk_set_xpr_addr, @function
__alnk_set_xpr_addr:
.LFB118:
	.cfi_startproc
	call	__x86.get_pc_thunk.ax
	addl	$_GLOBAL_OFFSET_TABLE_, %eax
	movl	8(%esp), %edx
	movl	__init_mdp@GOT(%eax), %eax
	movl	(%eax), %eax
	movl	280(%eax), %eax
	movl	(%eax), %eax
	movl	(%eax,%edx,4), %edx
	movl	4(%esp), %eax
	movl	%edx, (%eax)
	ret
	.cfi_endproc
.LFE118:
	.size	__alnk_set_xpr_addr, .-__alnk_set_xpr_addr
	.p2align 4,,15
	.globl	__alnk_ialst_enters
	.type	__alnk_ialst_enters, @function
__alnk_ialst_enters:
.LFB119:
	.cfi_startproc
	call	__x86.get_pc_thunk.ax
	addl	$_GLOBAL_OFFSET_TABLE_, %eax
	movl	8(%esp), %edx
	movl	__dsgn_mod_ndx@GOT(%eax), %eax
	movl	(%eax), %eax
	movl	(%eax,%edx,4), %eax
	movl	252(%eax), %eax
	testl	%eax, %eax
	je	.L772
	movl	4(%esp), %edx
	.p2align 4,,10
	.p2align 3
.L775:
	testb	$1, 1(%eax)
	jne	.L774
	movl	(%edx), %ecx
	movl	%ecx, 24(%eax)
.L774:
	movl	28(%eax), %eax
	addl	$4, %edx
	testl	%eax, %eax
	jne	.L775
.L772:
	rep ret
	.cfi_endproc
.LFE119:
	.size	__alnk_ialst_enters, .-__alnk_ialst_enters
	.p2align 4,,15
	.globl	__asl_get_uprel_idp
	.type	__asl_get_uprel_idp, @function
__asl_get_uprel_idp:
.LFB120:
	.cfi_startproc
	call	__x86.get_pc_thunk.ax
	addl	$_GLOBAL_OFFSET_TABLE_, %eax
	movl	__idp@GOT(%eax), %eax
	movl	(%eax), %eax
	movl	(%eax), %edx
	movl	4(%esp), %eax
	movl	48(%eax), %eax
	movl	(%eax,%edx,4), %eax
	movl	4(%eax), %eax
	ret
	.cfi_endproc
.LFE120:
	.size	__asl_get_uprel_idp, .-__asl_get_uprel_idp
	.p2align 4,,15
	.globl	__asl_get_downrel_idp
	.type	__asl_get_downrel_idp, @function
__asl_get_downrel_idp:
.LFB121:
	.cfi_startproc
	pushl	%ebx
	.cfi_def_cfa_offset 8
	.cfi_offset 3, -8
	call	__x86.get_pc_thunk.bx
	addl	$_GLOBAL_OFFSET_TABLE_, %ebx
	subl	$12, %esp
	.cfi_def_cfa_offset 20
	movl	__idp@GOT(%ebx), %eax
	movl	(%eax), %eax
	pushl	$0
	.cfi_def_cfa_offset 24
	pushl	8(%eax)
	.cfi_def_cfa_offset 28
	pushl	28(%esp)
	.cfi_def_cfa_offset 32
	call	__find_unrt_targitp@PLT
	movl	4(%eax), %eax
	addl	$24, %esp
	.cfi_def_cfa_offset 8
	popl	%ebx
	.cfi_restore 3
	.cfi_def_cfa_offset 4
	ret
	.cfi_endproc
.LFE121:
	.size	__asl_get_downrel_idp, .-__asl_get_downrel_idp
	.p2align 4,,15
	.globl	__asl_sched_proc_delay
	.type	__asl_sched_proc_delay, @function
__asl_sched_proc_delay:
.LFB122:
	.cfi_startproc
	pushl	%ebp
	.cfi_def_cfa_offset 8
	.cfi_offset 5, -8
	pushl	%edi
	.cfi_def_cfa_offset 12
	.cfi_offset 7, -12
	pushl	%esi
	.cfi_def_cfa_offset 16
	.cfi_offset 6, -16
	pushl	%ebx
	.cfi_def_cfa_offset 20
	.cfi_offset 3, -20
	call	__x86.get_pc_thunk.bx
	addl	$_GLOBAL_OFFSET_TABLE_, %ebx
	subl	$28, %esp
	.cfi_def_cfa_offset 48
	movl	52(%esp), %esi
	movl	48(%esp), %edi
	movl	8(%esi), %ecx
	testl	%ecx, %ecx
	jne	.L794
	movl	$1, 8(%esi)
.L785:
	movl	16(%edi), %edx
	subl	$8, %esp
	.cfi_def_cfa_offset 56
	movl	(%edx), %eax
	shrl	$13, %eax
	andl	$31, %eax
	pushl	%eax
	.cfi_def_cfa_offset 60
	pushl	8(%edx)
	.cfi_def_cfa_offset 64
	call	__get_del@PLT
	movl	__simtime@GOT(%ebx), %ecx
	movl	%eax, %edi
	movl	%edx, %ebp
	movl	%eax, 24(%esp)
	movl	%edx, 28(%esp)
	addl	(%ecx), %edi
	adcl	4(%ecx), %ebp
	movl	__cur_thd@GOT(%ebx), %ecx
	addl	$16, %esp
	.cfi_def_cfa_offset 48
	movl	8(%esp), %eax
	movl	12(%esp), %edx
	movl	(%ecx), %ecx
	movl	%edi, 24(%esi)
	orl	%eax, %edx
	movl	%ebp, 28(%esi)
	movl	%esi, 44(%ecx)
	movl	%ecx, 4(%esi)
	jne	.L786
	movl	__p0_te_hdrp@GOT(%ebx), %eax
	movl	(%eax), %edx
	testl	%edx, %edx
	je	.L795
	movl	__p0_te_endp@GOT(%ebx), %eax
	movl	(%eax), %edx
	movl	%esi, (%eax)
	movl	__free_event_pnd0_tevp@GOT(%ebx), %eax
	movl	%esi, 44(%edx)
	movl	(%eax), %eax
	movl	%eax, 44(%esi)
.L783:
	addl	$28, %esp
	.cfi_remember_state
	.cfi_def_cfa_offset 20
	popl	%ebx
	.cfi_restore 3
	.cfi_def_cfa_offset 16
	popl	%esi
	.cfi_restore 6
	.cfi_def_cfa_offset 12
	popl	%edi
	.cfi_restore 7
	.cfi_def_cfa_offset 8
	popl	%ebp
	.cfi_restore 5
	.cfi_def_cfa_offset 4
	ret
	.p2align 4,,10
	.p2align 3
.L795:
	.cfi_restore_state
	movl	__p0_te_endp@GOT(%ebx), %edx
	movl	%esi, (%eax)
	movl	%esi, (%edx)
	addl	$28, %esp
	.cfi_remember_state
	.cfi_def_cfa_offset 20
	popl	%ebx
	.cfi_restore 3
	.cfi_def_cfa_offset 16
	popl	%esi
	.cfi_restore 6
	.cfi_def_cfa_offset 12
	popl	%edi
	.cfi_restore 7
	.cfi_def_cfa_offset 8
	popl	%ebp
	.cfi_restore 5
	.cfi_def_cfa_offset 4
	ret
	.p2align 4,,10
	.p2align 3
.L786:
	.cfi_restore_state
	movl	__cur_tevp@GOT(%ebx), %eax
	movl	$0, 48(%esi)
	cmpl	(%eax), %esi
	je	.L789
	movl	$0, 44(%esi)
.L789:
	movl	%ebp, %eax
	movl	__time_hash@GOT(%ebx), %edx
	xorl	%edi, %eax
	imull	$-1640531535, %eax, %eax
	andl	$4095, %eax
	movl	(%edx,%eax,4), %edx
	testl	%edx, %edx
	je	.L796
	movl	4(%edx), %eax
	movl	8(%edx), %ecx
	xorl	%edi, %eax
	xorl	%ebp, %ecx
	orl	%eax, %ecx
	jne	.L791
	movl	16(%edx), %eax
	movl	%edx, 20(%esi)
	testl	%eax, %eax
	je	.L797
	movl	%esi, 44(%eax)
	movl	%eax, 48(%esi)
	movl	%esi, 16(%edx)
	addl	$28, %esp
	.cfi_remember_state
	.cfi_def_cfa_offset 20
	popl	%ebx
	.cfi_restore 3
	.cfi_def_cfa_offset 16
	popl	%esi
	.cfi_restore 6
	.cfi_def_cfa_offset 12
	popl	%edi
	.cfi_restore 7
	.cfi_def_cfa_offset 8
	popl	%ebp
	.cfi_restore 5
	.cfi_def_cfa_offset 4
	ret
	.p2align 4,,10
	.p2align 3
.L794:
	.cfi_restore_state
	movl	%esi, %eax
	call	asl_loc_get_new_event
	movl	%eax, %esi
	jmp	.L785
	.p2align 4,,10
	.p2align 3
.L791:
	addl	$28, %esp
	.cfi_remember_state
	.cfi_def_cfa_offset 20
	movl	%esi, %eax
	popl	%ebx
	.cfi_restore 3
	.cfi_def_cfa_offset 16
	popl	%esi
	.cfi_restore 6
	.cfi_def_cfa_offset 12
	popl	%edi
	.cfi_restore 7
	.cfi_def_cfa_offset 8
	popl	%ebp
	.cfi_restore 5
	.cfi_def_cfa_offset 4
	jmp	asl_loc_conflict_list
	.p2align 4,,10
	.p2align 3
.L796:
	.cfi_restore_state
	movl	%eax, %edx
	movl	%esi, %eax
	call	asl_loc_add_new_heap_time
	movl	%esi, 16(%eax)
	movl	%esi, 12(%eax)
	movl	$0, 24(%eax)
	movl	$0, 20(%eax)
	jmp	.L783
	.p2align 4,,10
	.p2align 3
.L797:
	movl	%esi, 16(%edx)
	movl	%esi, 12(%edx)
	jmp	.L783
	.cfi_endproc
.LFE122:
	.size	__asl_sched_proc_delay, .-__asl_sched_proc_delay
	.p2align 4,,15
	.globl	__asl_sched_proc_delay_const
	.type	__asl_sched_proc_delay_const, @function
__asl_sched_proc_delay_const:
.LFB125:
	.cfi_startproc
	pushl	%ebp
	.cfi_def_cfa_offset 8
	.cfi_offset 5, -8
	pushl	%edi
	.cfi_def_cfa_offset 12
	.cfi_offset 7, -12
	pushl	%esi
	.cfi_def_cfa_offset 16
	.cfi_offset 6, -16
	pushl	%ebx
	.cfi_def_cfa_offset 20
	.cfi_offset 3, -20
	call	__x86.get_pc_thunk.bp
	addl	$_GLOBAL_OFFSET_TABLE_, %ebp
	subl	$12, %esp
	.cfi_def_cfa_offset 32
	movl	32(%esp), %ebx
	movl	8(%ebx), %eax
	testl	%eax, %eax
	jne	.L807
	movl	$1, 8(%ebx)
.L800:
	movl	__simtime@GOT(%ebp), %eax
	movl	(%eax), %esi
	movl	4(%eax), %edi
	movl	__cur_thd@GOT(%ebp), %eax
	addl	36(%ebx), %esi
	adcl	40(%ebx), %edi
	movl	(%eax), %eax
	movl	%esi, 24(%ebx)
	movl	%edi, 28(%ebx)
	movl	%ebx, 44(%eax)
	movl	%eax, 4(%ebx)
	movl	__cur_tevp@GOT(%ebp), %eax
	movl	$0, 48(%ebx)
	cmpl	(%eax), %ebx
	je	.L801
	movl	$0, 44(%ebx)
.L801:
	movl	%edi, %eax
	movl	__time_hash@GOT(%ebp), %edx
	xorl	%esi, %eax
	imull	$-1640531535, %eax, %eax
	andl	$4095, %eax
	movl	(%edx,%eax,4), %edx
	testl	%edx, %edx
	je	.L808
	movl	4(%edx), %eax
	movl	8(%edx), %ecx
	xorl	%esi, %eax
	xorl	%edi, %ecx
	orl	%eax, %ecx
	jne	.L804
	movl	16(%edx), %eax
	movl	%edx, 20(%ebx)
	testl	%eax, %eax
	je	.L809
	movl	%ebx, 44(%eax)
	movl	%eax, 48(%ebx)
	movl	%ebx, 16(%edx)
	addl	$12, %esp
	.cfi_remember_state
	.cfi_def_cfa_offset 20
	popl	%ebx
	.cfi_restore 3
	.cfi_def_cfa_offset 16
	popl	%esi
	.cfi_restore 6
	.cfi_def_cfa_offset 12
	popl	%edi
	.cfi_restore 7
	.cfi_def_cfa_offset 8
	popl	%ebp
	.cfi_restore 5
	.cfi_def_cfa_offset 4
	ret
	.p2align 4,,10
	.p2align 3
.L804:
	.cfi_restore_state
	addl	$12, %esp
	.cfi_remember_state
	.cfi_def_cfa_offset 20
	movl	%ebx, %eax
	popl	%ebx
	.cfi_restore 3
	.cfi_def_cfa_offset 16
	popl	%esi
	.cfi_restore 6
	.cfi_def_cfa_offset 12
	popl	%edi
	.cfi_restore 7
	.cfi_def_cfa_offset 8
	popl	%ebp
	.cfi_restore 5
	.cfi_def_cfa_offset 4
	jmp	asl_loc_conflict_list
	.p2align 4,,10
	.p2align 3
.L807:
	.cfi_restore_state
	movl	%ebx, %eax
	call	asl_loc_get_new_event
	movl	%eax, %ebx
	jmp	.L800
	.p2align 4,,10
	.p2align 3
.L808:
	movl	%eax, %edx
	movl	%ebx, %eax
	call	asl_loc_add_new_heap_time
	movl	%ebx, 16(%eax)
	movl	%ebx, 12(%eax)
	movl	$0, 24(%eax)
	movl	$0, 20(%eax)
	addl	$12, %esp
	.cfi_remember_state
	.cfi_def_cfa_offset 20
	popl	%ebx
	.cfi_restore 3
	.cfi_def_cfa_offset 16
	popl	%esi
	.cfi_restore 6
	.cfi_def_cfa_offset 12
	popl	%edi
	.cfi_restore 7
	.cfi_def_cfa_offset 8
	popl	%ebp
	.cfi_restore 5
	.cfi_def_cfa_offset 4
	ret
	.p2align 4,,10
	.p2align 3
.L809:
	.cfi_restore_state
	movl	%ebx, 16(%edx)
	movl	%ebx, 12(%edx)
	addl	$12, %esp
	.cfi_def_cfa_offset 20
	popl	%ebx
	.cfi_restore 3
	.cfi_def_cfa_offset 16
	popl	%esi
	.cfi_restore 6
	.cfi_def_cfa_offset 12
	popl	%edi
	.cfi_restore 7
	.cfi_def_cfa_offset 8
	popl	%ebp
	.cfi_restore 5
	.cfi_def_cfa_offset 4
	ret
	.cfi_endproc
.LFE125:
	.size	__asl_sched_proc_delay_const, .-__asl_sched_proc_delay_const
	.p2align 4,,15
	.globl	__asl_sched_proc_delay_task_const
	.type	__asl_sched_proc_delay_task_const, @function
__asl_sched_proc_delay_task_const:
.LFB126:
	.cfi_startproc
	pushl	%ebp
	.cfi_def_cfa_offset 8
	.cfi_offset 5, -8
	pushl	%edi
	.cfi_def_cfa_offset 12
	.cfi_offset 7, -12
	pushl	%esi
	.cfi_def_cfa_offset 16
	.cfi_offset 6, -16
	pushl	%ebx
	.cfi_def_cfa_offset 20
	.cfi_offset 3, -20
	call	__x86.get_pc_thunk.bp
	addl	$_GLOBAL_OFFSET_TABLE_, %ebp
	subl	$12, %esp
	.cfi_def_cfa_offset 32
	movl	32(%esp), %ebx
	movl	8(%ebx), %eax
	testl	%eax, %eax
	jne	.L819
	movl	$1, 8(%ebx)
.L812:
	movl	__simtime@GOT(%ebp), %eax
	movl	(%eax), %esi
	movl	4(%eax), %edi
	movl	__cur_thd@GOT(%ebp), %eax
	addl	36(%ebx), %esi
	adcl	40(%ebx), %edi
	movl	(%eax), %eax
	movl	%esi, 24(%ebx)
	movl	%edi, 28(%ebx)
	movl	%ebx, 44(%eax)
	movl	%eax, 4(%ebx)
	movl	__cur_tevp@GOT(%ebp), %eax
	movl	$0, 48(%ebx)
	cmpl	(%eax), %ebx
	je	.L813
	movl	$0, 44(%ebx)
.L813:
	movl	%edi, %eax
	movl	__time_hash@GOT(%ebp), %edx
	xorl	%esi, %eax
	imull	$-1640531535, %eax, %eax
	andl	$4095, %eax
	movl	(%edx,%eax,4), %edx
	testl	%edx, %edx
	je	.L820
	movl	4(%edx), %eax
	movl	8(%edx), %ecx
	xorl	%esi, %eax
	xorl	%edi, %ecx
	orl	%eax, %ecx
	jne	.L816
	movl	16(%edx), %eax
	movl	%edx, 20(%ebx)
	testl	%eax, %eax
	je	.L821
	movl	%ebx, 44(%eax)
	movl	%eax, 48(%ebx)
	movl	%ebx, 16(%edx)
	addl	$12, %esp
	.cfi_remember_state
	.cfi_def_cfa_offset 20
	popl	%ebx
	.cfi_restore 3
	.cfi_def_cfa_offset 16
	popl	%esi
	.cfi_restore 6
	.cfi_def_cfa_offset 12
	popl	%edi
	.cfi_restore 7
	.cfi_def_cfa_offset 8
	popl	%ebp
	.cfi_restore 5
	.cfi_def_cfa_offset 4
	ret
	.p2align 4,,10
	.p2align 3
.L816:
	.cfi_restore_state
	addl	$12, %esp
	.cfi_remember_state
	.cfi_def_cfa_offset 20
	movl	%ebx, %eax
	popl	%ebx
	.cfi_restore 3
	.cfi_def_cfa_offset 16
	popl	%esi
	.cfi_restore 6
	.cfi_def_cfa_offset 12
	popl	%edi
	.cfi_restore 7
	.cfi_def_cfa_offset 8
	popl	%ebp
	.cfi_restore 5
	.cfi_def_cfa_offset 4
	jmp	asl_loc_conflict_list
	.p2align 4,,10
	.p2align 3
.L819:
	.cfi_restore_state
	movl	%ebx, %eax
	call	asl_loc_get_new_event
	movl	%eax, %ebx
	jmp	.L812
	.p2align 4,,10
	.p2align 3
.L820:
	movl	%eax, %edx
	movl	%ebx, %eax
	call	asl_loc_add_new_heap_time
	movl	%ebx, 16(%eax)
	movl	%ebx, 12(%eax)
	movl	$0, 24(%eax)
	movl	$0, 20(%eax)
	addl	$12, %esp
	.cfi_remember_state
	.cfi_def_cfa_offset 20
	popl	%ebx
	.cfi_restore 3
	.cfi_def_cfa_offset 16
	popl	%esi
	.cfi_restore 6
	.cfi_def_cfa_offset 12
	popl	%edi
	.cfi_restore 7
	.cfi_def_cfa_offset 8
	popl	%ebp
	.cfi_restore 5
	.cfi_def_cfa_offset 4
	ret
	.p2align 4,,10
	.p2align 3
.L821:
	.cfi_restore_state
	movl	%ebx, 16(%edx)
	movl	%ebx, 12(%edx)
	addl	$12, %esp
	.cfi_def_cfa_offset 20
	popl	%ebx
	.cfi_restore 3
	.cfi_def_cfa_offset 16
	popl	%esi
	.cfi_restore 6
	.cfi_def_cfa_offset 12
	popl	%edi
	.cfi_restore 7
	.cfi_def_cfa_offset 8
	popl	%ebp
	.cfi_restore 5
	.cfi_def_cfa_offset 4
	ret
	.cfi_endproc
.LFE126:
	.size	__asl_sched_proc_delay_task_const, .-__asl_sched_proc_delay_task_const
	.p2align 4,,15
	.globl	__asl_sched_proc_delay_pnd0
	.type	__asl_sched_proc_delay_pnd0, @function
__asl_sched_proc_delay_pnd0:
.LFB127:
	.cfi_startproc
	pushl	%ebx
	.cfi_def_cfa_offset 8
	.cfi_offset 3, -8
	call	__x86.get_pc_thunk.bx
	addl	$_GLOBAL_OFFSET_TABLE_, %ebx
	subl	$8, %esp
	.cfi_def_cfa_offset 16
	movl	16(%esp), %eax
	movl	8(%eax), %edx
	testl	%edx, %edx
	jne	.L828
	movl	$1, 8(%eax)
.L824:
	movl	__cur_thd@GOT(%ebx), %edx
	movl	(%edx), %edx
	movl	%eax, 44(%edx)
	movl	%edx, 4(%eax)
	movl	__p0_te_hdrp@GOT(%ebx), %edx
	movl	(%edx), %ecx
	testl	%ecx, %ecx
	je	.L829
	movl	__p0_te_endp@GOT(%ebx), %edx
	movl	(%edx), %ecx
	movl	%eax, (%edx)
	movl	__free_event_pnd0_tevp@GOT(%ebx), %edx
	movl	%eax, 44(%ecx)
	movl	(%edx), %edx
	movl	%edx, 44(%eax)
	addl	$8, %esp
	.cfi_remember_state
	.cfi_def_cfa_offset 8
	popl	%ebx
	.cfi_restore 3
	.cfi_def_cfa_offset 4
	ret
	.p2align 4,,10
	.p2align 3
.L828:
	.cfi_restore_state
	call	asl_loc_get_new_event
	jmp	.L824
	.p2align 4,,10
	.p2align 3
.L829:
	movl	__p0_te_endp@GOT(%ebx), %ecx
	movl	%eax, (%edx)
	movl	%eax, (%ecx)
	addl	$8, %esp
	.cfi_def_cfa_offset 8
	popl	%ebx
	.cfi_restore 3
	.cfi_def_cfa_offset 4
	ret
	.cfi_endproc
.LFE127:
	.size	__asl_sched_proc_delay_pnd0, .-__asl_sched_proc_delay_pnd0
	.p2align 4,,15
	.globl	__asl_sched_proc_delay_task_pnd0
	.type	__asl_sched_proc_delay_task_pnd0, @function
__asl_sched_proc_delay_task_pnd0:
.LFB535:
	.cfi_startproc
	jmp	__asl_sched_proc_delay_pnd0
	.cfi_endproc
.LFE535:
	.size	__asl_sched_proc_delay_task_pnd0, .-__asl_sched_proc_delay_task_pnd0
	.p2align 4,,15
	.globl	__asl_sched_proc_delay_nt
	.type	__asl_sched_proc_delay_nt, @function
__asl_sched_proc_delay_nt:
.LFB129:
	.cfi_startproc
	pushl	%ebp
	.cfi_def_cfa_offset 8
	.cfi_offset 5, -8
	pushl	%edi
	.cfi_def_cfa_offset 12
	.cfi_offset 7, -12
	pushl	%esi
	.cfi_def_cfa_offset 16
	.cfi_offset 6, -16
	pushl	%ebx
	.cfi_def_cfa_offset 20
	.cfi_offset 3, -20
	call	__x86.get_pc_thunk.bx
	addl	$_GLOBAL_OFFSET_TABLE_, %ebx
	subl	$36, %esp
	.cfi_def_cfa_offset 56
	movl	56(%esp), %eax
	movl	60(%esp), %esi
	movl	16(%eax), %edx
	movl	$1, 8(%esi)
	movl	(%edx), %eax
	shrl	$13, %eax
	andl	$31, %eax
	pushl	%eax
	.cfi_def_cfa_offset 60
	pushl	8(%edx)
	.cfi_def_cfa_offset 64
	call	__get_del@PLT
	movl	__simtime@GOT(%ebx), %ecx
	movl	%eax, %edi
	movl	%eax, 24(%esp)
	movl	%edx, 28(%esp)
	movl	%edx, %ebp
	addl	(%ecx), %edi
	adcl	4(%ecx), %ebp
	addl	$16, %esp
	.cfi_def_cfa_offset 48
	movl	8(%esp), %eax
	movl	12(%esp), %edx
	movl	%edi, 24(%esi)
	orl	%eax, %edx
	movl	%ebp, 28(%esi)
	jne	.L832
	movl	__p0_te_hdrp@GOT(%ebx), %eax
	movl	(%eax), %edx
	testl	%edx, %edx
	je	.L840
	movl	__p0_te_endp@GOT(%ebx), %eax
	movl	(%eax), %edx
	movl	%esi, (%eax)
	movl	__free_event_pnd0_tevp@GOT(%ebx), %eax
	movl	%esi, 44(%edx)
	movl	(%eax), %eax
	movl	%eax, 44(%esi)
.L831:
	addl	$28, %esp
	.cfi_remember_state
	.cfi_def_cfa_offset 20
	popl	%ebx
	.cfi_restore 3
	.cfi_def_cfa_offset 16
	popl	%esi
	.cfi_restore 6
	.cfi_def_cfa_offset 12
	popl	%edi
	.cfi_restore 7
	.cfi_def_cfa_offset 8
	popl	%ebp
	.cfi_restore 5
	.cfi_def_cfa_offset 4
	ret
	.p2align 4,,10
	.p2align 3
.L840:
	.cfi_restore_state
	movl	__p0_te_endp@GOT(%ebx), %edx
	movl	%esi, (%eax)
	movl	%esi, (%edx)
	addl	$28, %esp
	.cfi_remember_state
	.cfi_def_cfa_offset 20
	popl	%ebx
	.cfi_restore 3
	.cfi_def_cfa_offset 16
	popl	%esi
	.cfi_restore 6
	.cfi_def_cfa_offset 12
	popl	%edi
	.cfi_restore 7
	.cfi_def_cfa_offset 8
	popl	%ebp
	.cfi_restore 5
	.cfi_def_cfa_offset 4
	ret
	.p2align 4,,10
	.p2align 3
.L832:
	.cfi_restore_state
	movl	__cur_tevp@GOT(%ebx), %eax
	movl	$0, 48(%esi)
	cmpl	(%eax), %esi
	je	.L835
	movl	$0, 44(%esi)
.L835:
	movl	%ebp, %eax
	movl	__time_hash@GOT(%ebx), %edx
	xorl	%edi, %eax
	imull	$-1640531535, %eax, %eax
	andl	$4095, %eax
	movl	(%edx,%eax,4), %edx
	testl	%edx, %edx
	je	.L841
	movl	4(%edx), %eax
	movl	8(%edx), %ecx
	xorl	%edi, %eax
	xorl	%ebp, %ecx
	orl	%eax, %ecx
	jne	.L837
	movl	16(%edx), %eax
	movl	%edx, 20(%esi)
	testl	%eax, %eax
	je	.L842
	movl	%esi, 44(%eax)
	movl	%eax, 48(%esi)
	movl	%esi, 16(%edx)
	addl	$28, %esp
	.cfi_remember_state
	.cfi_def_cfa_offset 20
	popl	%ebx
	.cfi_restore 3
	.cfi_def_cfa_offset 16
	popl	%esi
	.cfi_restore 6
	.cfi_def_cfa_offset 12
	popl	%edi
	.cfi_restore 7
	.cfi_def_cfa_offset 8
	popl	%ebp
	.cfi_restore 5
	.cfi_def_cfa_offset 4
	ret
	.p2align 4,,10
	.p2align 3
.L837:
	.cfi_restore_state
	addl	$28, %esp
	.cfi_remember_state
	.cfi_def_cfa_offset 20
	movl	%esi, %eax
	popl	%ebx
	.cfi_restore 3
	.cfi_def_cfa_offset 16
	popl	%esi
	.cfi_restore 6
	.cfi_def_cfa_offset 12
	popl	%edi
	.cfi_restore 7
	.cfi_def_cfa_offset 8
	popl	%ebp
	.cfi_restore 5
	.cfi_def_cfa_offset 4
	jmp	asl_loc_conflict_list
	.p2align 4,,10
	.p2align 3
.L841:
	.cfi_restore_state
	movl	%eax, %edx
	movl	%esi, %eax
	call	asl_loc_add_new_heap_time
	movl	%esi, 16(%eax)
	movl	%esi, 12(%eax)
	movl	$0, 24(%eax)
	movl	$0, 20(%eax)
	jmp	.L831
	.p2align 4,,10
	.p2align 3
.L842:
	movl	%esi, 16(%edx)
	movl	%esi, 12(%edx)
	jmp	.L831
	.cfi_endproc
.LFE129:
	.size	__asl_sched_proc_delay_nt, .-__asl_sched_proc_delay_nt
	.p2align 4,,15
	.globl	__asl_sched_proc_delay_const_nt
	.type	__asl_sched_proc_delay_const_nt, @function
__asl_sched_proc_delay_const_nt:
.LFB130:
	.cfi_startproc
	call	__x86.get_pc_thunk.cx
	addl	$_GLOBAL_OFFSET_TABLE_, %ecx
	pushl	%edi
	.cfi_def_cfa_offset 8
	.cfi_offset 7, -8
	pushl	%esi
	.cfi_def_cfa_offset 12
	.cfi_offset 6, -12
	movl	__simtime@GOT(%ecx), %eax
	pushl	%ebx
	.cfi_def_cfa_offset 16
	.cfi_offset 3, -16
	movl	16(%esp), %ebx
	movl	(%eax), %esi
	movl	4(%eax), %edi
	movl	__cur_tevp@GOT(%ecx), %eax
	addl	36(%ebx), %esi
	adcl	40(%ebx), %edi
	movl	$1, 8(%ebx)
	movl	$0, 48(%ebx)
	cmpl	(%eax), %ebx
	movl	%esi, 24(%ebx)
	movl	%edi, 28(%ebx)
	je	.L844
	movl	$0, 44(%ebx)
.L844:
	movl	%edi, %eax
	movl	__time_hash@GOT(%ecx), %edx
	xorl	%esi, %eax
	imull	$-1640531535, %eax, %eax
	andl	$4095, %eax
	movl	(%edx,%eax,4), %edx
	testl	%edx, %edx
	je	.L850
	movl	4(%edx), %eax
	movl	8(%edx), %ecx
	xorl	%esi, %eax
	xorl	%edi, %ecx
	orl	%eax, %ecx
	jne	.L847
	movl	16(%edx), %eax
	movl	%edx, 20(%ebx)
	testl	%eax, %eax
	je	.L851
	movl	%ebx, 44(%eax)
	movl	%eax, 48(%ebx)
	movl	%ebx, 16(%edx)
	popl	%ebx
	.cfi_remember_state
	.cfi_restore 3
	.cfi_def_cfa_offset 12
	popl	%esi
	.cfi_restore 6
	.cfi_def_cfa_offset 8
	popl	%edi
	.cfi_restore 7
	.cfi_def_cfa_offset 4
	ret
	.p2align 4,,10
	.p2align 3
.L847:
	.cfi_restore_state
	movl	%ebx, %eax
	popl	%ebx
	.cfi_remember_state
	.cfi_restore 3
	.cfi_def_cfa_offset 12
	popl	%esi
	.cfi_restore 6
	.cfi_def_cfa_offset 8
	popl	%edi
	.cfi_restore 7
	.cfi_def_cfa_offset 4
	jmp	asl_loc_conflict_list
	.p2align 4,,10
	.p2align 3
.L850:
	.cfi_restore_state
	movl	%eax, %edx
	movl	%ebx, %eax
	call	asl_loc_add_new_heap_time
	movl	%ebx, 16(%eax)
	movl	%ebx, 12(%eax)
	movl	$0, 24(%eax)
	movl	$0, 20(%eax)
	popl	%ebx
	.cfi_remember_state
	.cfi_restore 3
	.cfi_def_cfa_offset 12
	popl	%esi
	.cfi_restore 6
	.cfi_def_cfa_offset 8
	popl	%edi
	.cfi_restore 7
	.cfi_def_cfa_offset 4
	ret
	.p2align 4,,10
	.p2align 3
.L851:
	.cfi_restore_state
	movl	%ebx, 16(%edx)
	movl	%ebx, 12(%edx)
	popl	%ebx
	.cfi_restore 3
	.cfi_def_cfa_offset 12
	popl	%esi
	.cfi_restore 6
	.cfi_def_cfa_offset 8
	popl	%edi
	.cfi_restore 7
	.cfi_def_cfa_offset 4
	ret
	.cfi_endproc
.LFE130:
	.size	__asl_sched_proc_delay_const_nt, .-__asl_sched_proc_delay_const_nt
	.p2align 4,,15
	.globl	__asl_sched_proc_delay_pnd0_nt
	.type	__asl_sched_proc_delay_pnd0_nt, @function
__asl_sched_proc_delay_pnd0_nt:
.LFB131:
	.cfi_startproc
	pushl	%ebx
	.cfi_def_cfa_offset 8
	.cfi_offset 3, -8
	call	__x86.get_pc_thunk.bx
	addl	$_GLOBAL_OFFSET_TABLE_, %ebx
	subl	$8, %esp
	.cfi_def_cfa_offset 16
	movl	16(%esp), %eax
	movl	8(%eax), %edx
	testl	%edx, %edx
	jne	.L858
	movl	$1, 8(%eax)
.L854:
	movl	__simtime@GOT(%ebx), %edx
	movl	4(%edx), %ecx
	movl	(%edx), %edx
	movl	%edx, 24(%eax)
	movl	__p0_te_hdrp@GOT(%ebx), %edx
	movl	%ecx, 28(%eax)
	movl	(%edx), %ecx
	testl	%ecx, %ecx
	je	.L859
	movl	__p0_te_endp@GOT(%ebx), %edx
	movl	(%edx), %ecx
	movl	%eax, (%edx)
	movl	__free_event_pnd0_tevp@GOT(%ebx), %edx
	movl	%eax, 44(%ecx)
	movl	(%edx), %edx
	movl	%edx, 44(%eax)
	addl	$8, %esp
	.cfi_remember_state
	.cfi_def_cfa_offset 8
	popl	%ebx
	.cfi_restore 3
	.cfi_def_cfa_offset 4
	ret
	.p2align 4,,10
	.p2align 3
.L858:
	.cfi_restore_state
	call	asl_loc_get_new_event
	jmp	.L854
	.p2align 4,,10
	.p2align 3
.L859:
	movl	__p0_te_endp@GOT(%ebx), %ecx
	movl	%eax, (%edx)
	movl	%eax, (%ecx)
	addl	$8, %esp
	.cfi_def_cfa_offset 8
	popl	%ebx
	.cfi_restore 3
	.cfi_def_cfa_offset 4
	ret
	.cfi_endproc
.LFE131:
	.size	__asl_sched_proc_delay_pnd0_nt, .-__asl_sched_proc_delay_pnd0_nt
	.p2align 4,,15
	.globl	__asl_arm_ectrl
	.type	__asl_arm_ectrl, @function
__asl_arm_ectrl:
.LFB132:
	.cfi_startproc
	call	__x86.get_pc_thunk.ax
	addl	$_GLOBAL_OFFSET_TABLE_, %eax
	movl	4(%esp), %edx
	movl	__cur_thd@GOT(%eax), %eax
	movl	(%eax), %eax
	movl	%edx, 44(%eax)
	movl	%eax, 4(%edx)
	movl	8(%esp), %edx
	movl	%edx, 52(%eax)
	ret
	.cfi_endproc
.LFE132:
	.size	__asl_arm_ectrl, .-__asl_arm_ectrl
	.p2align 4,,15
	.globl	__asl_setsav_assoc_tsk
	.type	__asl_setsav_assoc_tsk, @function
__asl_setsav_assoc_tsk:
.LFB133:
	.cfi_startproc
	call	__x86.get_pc_thunk.ax
	addl	$_GLOBAL_OFFSET_TABLE_, %eax
	movl	4(%esp), %ecx
	movl	__cur_thd@GOT(%eax), %eax
	movl	16(%ecx), %ecx
	movl	(%eax), %edx
	movl	48(%edx), %eax
	movl	%ecx, 48(%edx)
	ret
	.cfi_endproc
.LFE133:
	.size	__asl_setsav_assoc_tsk, .-__asl_setsav_assoc_tsk
	.p2align 4,,15
	.globl	__asl_repl_curth_itp
	.type	__asl_repl_curth_itp, @function
__asl_repl_curth_itp:
.LFB134:
	.cfi_startproc
	call	__x86.get_pc_thunk.ax
	addl	$_GLOBAL_OFFSET_TABLE_, %eax
	movl	__cur_thd@GOT(%eax), %edx
	movl	__idp@GOT(%eax), %eax
	movl	(%edx), %edx
	movl	(%eax), %eax
	movl	%eax, 60(%edx)
	ret
	.cfi_endproc
.LFE134:
	.size	__asl_repl_curth_itp, .-__asl_repl_curth_itp
	.p2align 4,,15
	.globl	__asl_repl_itstk_top
	.type	__asl_repl_itstk_top, @function
__asl_repl_itstk_top:
.LFB135:
	.cfi_startproc
	call	__x86.get_pc_thunk.ax
	addl	$_GLOBAL_OFFSET_TABLE_, %eax
	movl	__cur_thd@GOT(%eax), %eax
	movl	(%eax), %eax
	movl	60(%eax), %eax
	ret
	.cfi_endproc
.LFE135:
	.size	__asl_repl_itstk_top, .-__asl_repl_itstk_top
	.p2align 4,,15
	.globl	__asl_bld_nb_nodelay_tev
	.type	__asl_bld_nb_nodelay_tev, @function
__asl_bld_nb_nodelay_tev:
.LFB136:
	.cfi_startproc
	movl	4(%esp), %eax
	call	__x86.get_pc_thunk.dx
	addl	$_GLOBAL_OFFSET_TABLE_, %edx
	movl	8(%eax), %ecx
	testl	%ecx, %ecx
	jne	.L864
	movl	__nb_te_endp@GOT(%edx), %edx
	movl	$1, 8(%eax)
	movl	(%edx), %ecx
	movl	%eax, (%edx)
	movl	%eax, 44(%ecx)
.L864:
	rep ret
	.cfi_endproc
.LFE136:
	.size	__asl_bld_nb_nodelay_tev, .-__asl_bld_nb_nodelay_tev
	.p2align 4,,15
	.globl	__asl_sched_nbrhs_scalar_dctrl
	.type	__asl_sched_nbrhs_scalar_dctrl, @function
__asl_sched_nbrhs_scalar_dctrl:
.LFB137:
	.cfi_startproc
	pushl	%ebp
	.cfi_def_cfa_offset 8
	.cfi_offset 5, -8
	pushl	%edi
	.cfi_def_cfa_offset 12
	.cfi_offset 7, -12
	pushl	%esi
	.cfi_def_cfa_offset 16
	.cfi_offset 6, -16
	pushl	%ebx
	.cfi_def_cfa_offset 20
	.cfi_offset 3, -20
	call	__x86.get_pc_thunk.bx
	addl	$_GLOBAL_OFFSET_TABLE_, %ebx
	subl	$28, %esp
	.cfi_def_cfa_offset 48
	movl	56(%esp), %eax
	movl	48(%esp), %esi
	movl	52(%esp), %ebp
	movl	%eax, 12(%esp)
	movl	8(%esi), %eax
	testl	%eax, %eax
	jne	.L877
	movl	$1, 8(%esi)
.L868:
	movl	16(%ebp), %edx
	subl	$8, %esp
	.cfi_def_cfa_offset 56
	movl	(%edx), %eax
	shrl	$13, %eax
	andl	$31, %eax
	pushl	%eax
	.cfi_def_cfa_offset 60
	pushl	8(%edx)
	.cfi_def_cfa_offset 64
	call	__get_del@PLT
	movl	__simtime@GOT(%ebx), %ecx
	movl	%eax, 16(%esp)
	movl	%eax, %edi
	movzbl	28(%esp), %eax
	movl	%edx, 20(%esp)
	movl	%edx, %ebp
	addl	(%ecx), %edi
	adcl	4(%ecx), %ebp
	addl	$16, %esp
	.cfi_def_cfa_offset 48
	movb	%al, 3(%esi)
	movl	4(%esp), %edx
	movl	(%esp), %eax
	movl	%edi, 24(%esi)
	movl	%ebp, 28(%esi)
	orl	%eax, %edx
	jne	.L869
	movl	__nb_te_endp@GOT(%ebx), %eax
	movl	(%eax), %edx
	movl	%esi, (%eax)
	movl	%esi, 44(%edx)
.L866:
	addl	$28, %esp
	.cfi_remember_state
	.cfi_def_cfa_offset 20
	popl	%ebx
	.cfi_restore 3
	.cfi_def_cfa_offset 16
	popl	%esi
	.cfi_restore 6
	.cfi_def_cfa_offset 12
	popl	%edi
	.cfi_restore 7
	.cfi_def_cfa_offset 8
	popl	%ebp
	.cfi_restore 5
	.cfi_def_cfa_offset 4
	ret
	.p2align 4,,10
	.p2align 3
.L869:
	.cfi_restore_state
	movl	__last_nb_hp@GOT(%ebx), %eax
	movl	%eax, (%esp)
	movl	(%eax), %eax
	movl	4(%eax), %edx
	movl	8(%eax), %ecx
	xorl	%edi, %edx
	xorl	%ebp, %ecx
	orl	%edx, %ecx
	je	.L878
	movl	%ebp, %eax
	movl	__time_hash@GOT(%ebx), %edx
	xorl	%edi, %eax
	imull	$-1640531535, %eax, %eax
	andl	$4095, %eax
	movl	(%edx,%eax,4), %edx
	testl	%edx, %edx
	je	.L879
	movl	4(%edx), %eax
	movl	8(%edx), %ecx
	xorl	%edi, %eax
	xorl	%ebp, %ecx
	orl	%eax, %ecx
	jne	.L874
	movl	(%esp), %eax
	movl	%edx, (%eax)
	movl	24(%edx), %eax
	movl	%esi, 24(%edx)
	testl	%eax, %eax
	je	.L880
	movl	%esi, 44(%eax)
	jmp	.L866
	.p2align 4,,10
	.p2align 3
.L877:
	movl	%esi, %eax
	call	asl_loc_get_new_event_nb
	movl	%eax, %esi
	jmp	.L868
	.p2align 4,,10
	.p2align 3
.L874:
	addl	$28, %esp
	.cfi_remember_state
	.cfi_def_cfa_offset 20
	movl	%esi, %eax
	popl	%ebx
	.cfi_restore 3
	.cfi_def_cfa_offset 16
	popl	%esi
	.cfi_restore 6
	.cfi_def_cfa_offset 12
	popl	%edi
	.cfi_restore 7
	.cfi_def_cfa_offset 8
	popl	%ebp
	.cfi_restore 5
	.cfi_def_cfa_offset 4
	jmp	asl_loc_nb_conflict_list
	.p2align 4,,10
	.p2align 3
.L878:
	.cfi_restore_state
	movl	24(%eax), %edx
	movl	%esi, 24(%eax)
	testl	%edx, %edx
	je	.L881
	movl	%esi, 44(%edx)
	jmp	.L866
	.p2align 4,,10
	.p2align 3
.L881:
	movl	%esi, 20(%eax)
	jmp	.L866
	.p2align 4,,10
	.p2align 3
.L879:
	movl	%eax, %edx
	movl	%esi, %eax
	call	asl_loc_add_new_heap_time
	movl	(%esp), %ebx
	movl	%esi, 24(%eax)
	movl	%esi, 20(%eax)
	movl	$0, 16(%eax)
	movl	$0, 12(%eax)
	movl	%eax, (%ebx)
	jmp	.L866
	.p2align 4,,10
	.p2align 3
.L880:
	movl	%esi, 20(%edx)
	jmp	.L866
	.cfi_endproc
.LFE137:
	.size	__asl_sched_nbrhs_scalar_dctrl, .-__asl_sched_nbrhs_scalar_dctrl
	.p2align 4,,15
	.globl	__asl_sched_nbrhs_scalar_dctrl_const
	.type	__asl_sched_nbrhs_scalar_dctrl_const, @function
__asl_sched_nbrhs_scalar_dctrl_const:
.LFB138:
	.cfi_startproc
	pushl	%ebp
	.cfi_def_cfa_offset 8
	.cfi_offset 5, -8
	pushl	%edi
	.cfi_def_cfa_offset 12
	.cfi_offset 7, -12
	pushl	%esi
	.cfi_def_cfa_offset 16
	.cfi_offset 6, -16
	pushl	%ebx
	.cfi_def_cfa_offset 20
	.cfi_offset 3, -20
	call	__x86.get_pc_thunk.si
	addl	$_GLOBAL_OFFSET_TABLE_, %esi
	subl	$28, %esp
	.cfi_def_cfa_offset 48
	movl	48(%esp), %ebx
	movl	52(%esp), %edi
	movl	8(%ebx), %eax
	testl	%eax, %eax
	jne	.L892
	movl	$1, 8(%ebx)
.L884:
	movl	__simtime@GOT(%esi), %eax
	movl	4(%eax), %edx
	movl	(%eax), %eax
	addl	36(%ebx), %eax
	adcl	40(%ebx), %edx
	movl	%eax, 8(%esp)
	movl	%eax, 24(%ebx)
	movl	%edi, %eax
	movl	__last_nb_hp@GOT(%esi), %edi
	movb	%al, 3(%ebx)
	movl	%edx, 12(%esp)
	movl	8(%esp), %eax
	movl	12(%esp), %ebp
	movl	%edx, 28(%ebx)
	movl	(%edi), %ecx
	xorl	4(%ecx), %eax
	xorl	8(%ecx), %ebp
	orl	%ebp, %eax
	je	.L893
	movl	12(%esp), %edx
	movl	8(%esp), %eax
	movl	__time_hash@GOT(%esi), %esi
	movl	%edx, %ecx
	xorl	%eax, %ecx
	imull	$-1640531535, %ecx, %ecx
	andl	$4095, %ecx
	movl	(%esi,%ecx,4), %esi
	testl	%esi, %esi
	je	.L894
	movl	8(%esp), %edx
	movl	4(%esi), %eax
	movl	12(%esp), %ecx
	xorl	%edx, %eax
	movl	8(%esi), %edx
	xorl	%ecx, %edx
	orl	%eax, %edx
	jne	.L889
	movl	24(%esi), %eax
	movl	%esi, (%edi)
	movl	%ebx, 24(%esi)
	testl	%eax, %eax
	je	.L895
.L890:
	movl	%ebx, 44(%eax)
.L882:
	addl	$28, %esp
	.cfi_remember_state
	.cfi_def_cfa_offset 20
	popl	%ebx
	.cfi_restore 3
	.cfi_def_cfa_offset 16
	popl	%esi
	.cfi_restore 6
	.cfi_def_cfa_offset 12
	popl	%edi
	.cfi_restore 7
	.cfi_def_cfa_offset 8
	popl	%ebp
	.cfi_restore 5
	.cfi_def_cfa_offset 4
	ret
	.p2align 4,,10
	.p2align 3
.L889:
	.cfi_restore_state
	addl	$28, %esp
	.cfi_remember_state
	.cfi_def_cfa_offset 20
	movl	%esi, %edx
	movl	%ebx, %eax
	popl	%ebx
	.cfi_restore 3
	.cfi_def_cfa_offset 16
	popl	%esi
	.cfi_restore 6
	.cfi_def_cfa_offset 12
	popl	%edi
	.cfi_restore 7
	.cfi_def_cfa_offset 8
	popl	%ebp
	.cfi_restore 5
	.cfi_def_cfa_offset 4
	jmp	asl_loc_nb_conflict_list
	.p2align 4,,10
	.p2align 3
.L893:
	.cfi_restore_state
	movl	24(%ecx), %eax
	movl	%ebx, 24(%ecx)
	testl	%eax, %eax
	jne	.L890
	movl	%ebx, 20(%ecx)
	addl	$28, %esp
	.cfi_remember_state
	.cfi_def_cfa_offset 20
	popl	%ebx
	.cfi_restore 3
	.cfi_def_cfa_offset 16
	popl	%esi
	.cfi_restore 6
	.cfi_def_cfa_offset 12
	popl	%edi
	.cfi_restore 7
	.cfi_def_cfa_offset 8
	popl	%ebp
	.cfi_restore 5
	.cfi_def_cfa_offset 4
	ret
	.p2align 4,,10
	.p2align 3
.L892:
	.cfi_restore_state
	movl	%ebx, %eax
	call	asl_loc_get_new_event_nb
	movl	%eax, %ebx
	jmp	.L884
	.p2align 4,,10
	.p2align 3
.L894:
	movl	%ebx, %eax
	movl	%ecx, %edx
	call	asl_loc_add_new_heap_time
	movl	%eax, (%edi)
	movl	%ebx, 24(%eax)
	movl	%ebx, 20(%eax)
	movl	$0, 16(%eax)
	movl	$0, 12(%eax)
	addl	$28, %esp
	.cfi_remember_state
	.cfi_def_cfa_offset 20
	popl	%ebx
	.cfi_restore 3
	.cfi_def_cfa_offset 16
	popl	%esi
	.cfi_restore 6
	.cfi_def_cfa_offset 12
	popl	%edi
	.cfi_restore 7
	.cfi_def_cfa_offset 8
	popl	%ebp
	.cfi_restore 5
	.cfi_def_cfa_offset 4
	ret
	.p2align 4,,10
	.p2align 3
.L895:
	.cfi_restore_state
	movl	%ebx, 20(%esi)
	jmp	.L882
	.cfi_endproc
.LFE138:
	.size	__asl_sched_nbrhs_scalar_dctrl_const, .-__asl_sched_nbrhs_scalar_dctrl_const
	.p2align 4,,15
	.globl	__asl_sched_nbrhs_scalar_dctrl_const_t
	.type	__asl_sched_nbrhs_scalar_dctrl_const_t, @function
__asl_sched_nbrhs_scalar_dctrl_const_t:
.LFB139:
	.cfi_startproc
	pushl	%edi
	.cfi_def_cfa_offset 8
	.cfi_offset 7, -8
	pushl	%esi
	.cfi_def_cfa_offset 12
	.cfi_offset 6, -12
	pushl	%ebx
	.cfi_def_cfa_offset 16
	.cfi_offset 3, -16
	movl	16(%esp), %ebx
	call	__x86.get_pc_thunk.si
	addl	$_GLOBAL_OFFSET_TABLE_, %esi
	movl	20(%esp), %edi
	movl	8(%ebx), %eax
	testl	%eax, %eax
	jne	.L904
	movl	$1, 8(%ebx)
.L898:
	movl	%edi, %eax
	movl	__last_nb_hp@GOT(%esi), %edi
	movb	%al, 3(%ebx)
	movl	(%edi), %eax
	testl	%eax, %eax
	je	.L905
	movl	24(%eax), %edx
	movl	%ebx, 44(%edx)
	movl	%ebx, 24(%eax)
.L896:
	popl	%ebx
	.cfi_remember_state
	.cfi_restore 3
	.cfi_def_cfa_offset 12
	popl	%esi
	.cfi_restore 6
	.cfi_def_cfa_offset 8
	popl	%edi
	.cfi_restore 7
	.cfi_def_cfa_offset 4
	ret
	.p2align 4,,10
	.p2align 3
.L904:
	.cfi_restore_state
	movl	%ebx, %eax
	call	asl_loc_get_new_event_nb
	movl	%eax, %ebx
	jmp	.L898
	.p2align 4,,10
	.p2align 3
.L905:
	movl	__simtime@GOT(%esi), %eax
	movl	__time_hash@GOT(%esi), %esi
	movl	4(%eax), %edx
	movl	(%eax), %eax
	addl	36(%ebx), %eax
	adcl	40(%ebx), %edx
	movl	%eax, 24(%ebx)
	movl	%edx, %ecx
	movl	%edx, 28(%ebx)
	xorl	%eax, %ecx
	imull	$-1640531535, %ecx, %ecx
	andl	$4095, %ecx
	movl	(%esi,%ecx,4), %esi
	testl	%esi, %esi
	je	.L906
	movl	%edx, %ecx
	movl	%eax, %edx
	movl	4(%esi), %eax
	xorl	%edx, %eax
	movl	8(%esi), %edx
	xorl	%ecx, %edx
	orl	%eax, %edx
	je	.L907
	movl	%esi, %edx
	movl	%ebx, %eax
	popl	%ebx
	.cfi_remember_state
	.cfi_restore 3
	.cfi_def_cfa_offset 12
	popl	%esi
	.cfi_restore 6
	.cfi_def_cfa_offset 8
	popl	%edi
	.cfi_restore 7
	.cfi_def_cfa_offset 4
	jmp	asl_loc_nb_conflict_list
	.p2align 4,,10
	.p2align 3
.L907:
	.cfi_restore_state
	movl	%esi, (%edi)
	movl	%ebx, 24(%esi)
	movl	%ebx, 20(%esi)
	jmp	.L896
	.p2align 4,,10
	.p2align 3
.L906:
	movl	%ecx, %edx
	movl	%ebx, %eax
	call	asl_loc_add_new_heap_time
	movl	%eax, (%edi)
	movl	%ebx, 24(%eax)
	movl	%ebx, 20(%eax)
	movl	$0, 16(%eax)
	movl	$0, 12(%eax)
	jmp	.L896
	.cfi_endproc
.LFE139:
	.size	__asl_sched_nbrhs_scalar_dctrl_const_t, .-__asl_sched_nbrhs_scalar_dctrl_const_t
	.p2align 4,,15
	.globl	__asl_sched_nbrhs_scalar_dctrl_const_last
	.type	__asl_sched_nbrhs_scalar_dctrl_const_last, @function
__asl_sched_nbrhs_scalar_dctrl_const_last:
.LFB140:
	.cfi_startproc
	pushl	%ebx
	.cfi_def_cfa_offset 8
	.cfi_offset 3, -8
	call	__x86.get_pc_thunk.bx
	addl	$_GLOBAL_OFFSET_TABLE_, %ebx
	subl	$8, %esp
	.cfi_def_cfa_offset 16
	movl	16(%esp), %eax
	movl	8(%eax), %edx
	testl	%edx, %edx
	jne	.L912
	movl	$1, 8(%eax)
.L910:
	movl	20(%esp), %edx
	movb	%dl, 3(%eax)
	movl	__last_nb_hp@GOT(%ebx), %edx
	movl	(%edx), %edx
	movl	24(%edx), %ecx
	movl	%eax, 44(%ecx)
	movl	%eax, 24(%edx)
	addl	$8, %esp
	.cfi_remember_state
	.cfi_def_cfa_offset 8
	popl	%ebx
	.cfi_restore 3
	.cfi_def_cfa_offset 4
	ret
	.p2align 4,,10
	.p2align 3
.L912:
	.cfi_restore_state
	call	asl_loc_get_new_event_nb
	jmp	.L910
	.cfi_endproc
.LFE140:
	.size	__asl_sched_nbrhs_scalar_dctrl_const_last, .-__asl_sched_nbrhs_scalar_dctrl_const_last
	.p2align 4,,15
	.globl	__asl_sched_nbrhs_nomem_dctrl_const
	.type	__asl_sched_nbrhs_nomem_dctrl_const, @function
__asl_sched_nbrhs_nomem_dctrl_const:
.LFB141:
	.cfi_startproc
	pushl	%ebp
	.cfi_def_cfa_offset 8
	.cfi_offset 5, -8
	pushl	%edi
	.cfi_def_cfa_offset 12
	.cfi_offset 7, -12
	pushl	%esi
	.cfi_def_cfa_offset 16
	.cfi_offset 6, -16
	pushl	%ebx
	.cfi_def_cfa_offset 20
	.cfi_offset 3, -20
	call	__x86.get_pc_thunk.si
	addl	$_GLOBAL_OFFSET_TABLE_, %esi
	subl	$28, %esp
	.cfi_def_cfa_offset 48
	movl	48(%esp), %ebx
	movl	8(%ebx), %eax
	testl	%eax, %eax
	jne	.L923
	movl	$1, 8(%ebx)
.L915:
	movl	__simtime@GOT(%esi), %eax
	movl	__last_nb_hp@GOT(%esi), %edi
	movl	4(%eax), %edx
	movl	(%eax), %eax
	addl	36(%ebx), %eax
	movl	(%edi), %ecx
	adcl	40(%ebx), %edx
	movl	%eax, 24(%ebx)
	movl	%eax, 8(%esp)
	movl	%edx, 12(%esp)
	xorl	4(%ecx), %eax
	movl	12(%esp), %ebp
	xorl	8(%ecx), %ebp
	movl	%edx, 28(%ebx)
	orl	%ebp, %eax
	je	.L924
	movl	12(%esp), %edx
	movl	8(%esp), %eax
	movl	__time_hash@GOT(%esi), %esi
	movl	%edx, %ecx
	xorl	%eax, %ecx
	imull	$-1640531535, %ecx, %ecx
	andl	$4095, %ecx
	movl	(%esi,%ecx,4), %esi
	testl	%esi, %esi
	je	.L925
	movl	8(%esp), %edx
	movl	4(%esi), %eax
	movl	12(%esp), %ecx
	xorl	%edx, %eax
	movl	8(%esi), %edx
	xorl	%ecx, %edx
	orl	%eax, %edx
	jne	.L920
	movl	24(%esi), %eax
	movl	%esi, (%edi)
	movl	%ebx, 24(%esi)
	testl	%eax, %eax
	je	.L926
.L921:
	movl	%ebx, 44(%eax)
.L913:
	addl	$28, %esp
	.cfi_remember_state
	.cfi_def_cfa_offset 20
	popl	%ebx
	.cfi_restore 3
	.cfi_def_cfa_offset 16
	popl	%esi
	.cfi_restore 6
	.cfi_def_cfa_offset 12
	popl	%edi
	.cfi_restore 7
	.cfi_def_cfa_offset 8
	popl	%ebp
	.cfi_restore 5
	.cfi_def_cfa_offset 4
	ret
	.p2align 4,,10
	.p2align 3
.L920:
	.cfi_restore_state
	addl	$28, %esp
	.cfi_remember_state
	.cfi_def_cfa_offset 20
	movl	%esi, %edx
	movl	%ebx, %eax
	popl	%ebx
	.cfi_restore 3
	.cfi_def_cfa_offset 16
	popl	%esi
	.cfi_restore 6
	.cfi_def_cfa_offset 12
	popl	%edi
	.cfi_restore 7
	.cfi_def_cfa_offset 8
	popl	%ebp
	.cfi_restore 5
	.cfi_def_cfa_offset 4
	jmp	asl_loc_nb_conflict_list
	.p2align 4,,10
	.p2align 3
.L924:
	.cfi_restore_state
	movl	24(%ecx), %eax
	movl	%ebx, 24(%ecx)
	testl	%eax, %eax
	jne	.L921
	movl	%ebx, 20(%ecx)
	addl	$28, %esp
	.cfi_remember_state
	.cfi_def_cfa_offset 20
	popl	%ebx
	.cfi_restore 3
	.cfi_def_cfa_offset 16
	popl	%esi
	.cfi_restore 6
	.cfi_def_cfa_offset 12
	popl	%edi
	.cfi_restore 7
	.cfi_def_cfa_offset 8
	popl	%ebp
	.cfi_restore 5
	.cfi_def_cfa_offset 4
	ret
	.p2align 4,,10
	.p2align 3
.L923:
	.cfi_restore_state
	movl	%ebx, %eax
	call	asl_loc_get_new_event_nb
	movl	%eax, %ebx
	jmp	.L915
	.p2align 4,,10
	.p2align 3
.L925:
	movl	%ebx, %eax
	movl	%ecx, %edx
	call	asl_loc_add_new_heap_time
	movl	%ebx, 24(%eax)
	movl	%ebx, 20(%eax)
	movl	$0, 16(%eax)
	movl	$0, 12(%eax)
	movl	%eax, (%edi)
	addl	$28, %esp
	.cfi_remember_state
	.cfi_def_cfa_offset 20
	popl	%ebx
	.cfi_restore 3
	.cfi_def_cfa_offset 16
	popl	%esi
	.cfi_restore 6
	.cfi_def_cfa_offset 12
	popl	%edi
	.cfi_restore 7
	.cfi_def_cfa_offset 8
	popl	%ebp
	.cfi_restore 5
	.cfi_def_cfa_offset 4
	ret
	.p2align 4,,10
	.p2align 3
.L926:
	.cfi_restore_state
	movl	%ebx, 20(%esi)
	jmp	.L913
	.cfi_endproc
.LFE141:
	.size	__asl_sched_nbrhs_nomem_dctrl_const, .-__asl_sched_nbrhs_nomem_dctrl_const
	.p2align 4,,15
	.globl	__asl_sched_nbrhs_nomem_dctrl_const_t
	.type	__asl_sched_nbrhs_nomem_dctrl_const_t, @function
__asl_sched_nbrhs_nomem_dctrl_const_t:
.LFB142:
	.cfi_startproc
	pushl	%edi
	.cfi_def_cfa_offset 8
	.cfi_offset 7, -8
	pushl	%esi
	.cfi_def_cfa_offset 12
	.cfi_offset 6, -12
	pushl	%ebx
	.cfi_def_cfa_offset 16
	.cfi_offset 3, -16
	movl	16(%esp), %ebx
	call	__x86.get_pc_thunk.si
	addl	$_GLOBAL_OFFSET_TABLE_, %esi
	movl	8(%ebx), %eax
	testl	%eax, %eax
	jne	.L935
	movl	__last_nb_hp@GOT(%esi), %edi
	movl	$1, 8(%ebx)
	movl	(%edi), %eax
	testl	%eax, %eax
	je	.L936
.L930:
	movl	24(%eax), %edx
	movl	%ebx, 44(%edx)
	movl	%ebx, 24(%eax)
.L927:
	popl	%ebx
	.cfi_remember_state
	.cfi_restore 3
	.cfi_def_cfa_offset 12
	popl	%esi
	.cfi_restore 6
	.cfi_def_cfa_offset 8
	popl	%edi
	.cfi_restore 7
	.cfi_def_cfa_offset 4
	ret
	.p2align 4,,10
	.p2align 3
.L935:
	.cfi_restore_state
	movl	%ebx, %eax
	call	asl_loc_get_new_event_nb
	movl	__last_nb_hp@GOT(%esi), %edi
	movl	%eax, %ebx
	movl	(%edi), %eax
	testl	%eax, %eax
	jne	.L930
.L936:
	movl	__simtime@GOT(%esi), %eax
	movl	__time_hash@GOT(%esi), %esi
	movl	4(%eax), %edx
	movl	(%eax), %eax
	addl	36(%ebx), %eax
	adcl	40(%ebx), %edx
	movl	%eax, 24(%ebx)
	movl	%edx, %ecx
	movl	%edx, 28(%ebx)
	xorl	%eax, %ecx
	imull	$-1640531535, %ecx, %ecx
	andl	$4095, %ecx
	movl	(%esi,%ecx,4), %esi
	testl	%esi, %esi
	je	.L937
	movl	%edx, %ecx
	movl	%eax, %edx
	movl	4(%esi), %eax
	xorl	%edx, %eax
	movl	8(%esi), %edx
	xorl	%ecx, %edx
	orl	%eax, %edx
	je	.L938
	movl	%esi, %edx
	movl	%ebx, %eax
	popl	%ebx
	.cfi_remember_state
	.cfi_restore 3
	.cfi_def_cfa_offset 12
	popl	%esi
	.cfi_restore 6
	.cfi_def_cfa_offset 8
	popl	%edi
	.cfi_restore 7
	.cfi_def_cfa_offset 4
	jmp	asl_loc_nb_conflict_list
	.p2align 4,,10
	.p2align 3
.L938:
	.cfi_restore_state
	movl	%esi, (%edi)
	movl	%ebx, 24(%esi)
	movl	%ebx, 20(%esi)
	jmp	.L927
	.p2align 4,,10
	.p2align 3
.L937:
	movl	%ecx, %edx
	movl	%ebx, %eax
	call	asl_loc_add_new_heap_time
	movl	%eax, (%edi)
	movl	%ebx, 24(%eax)
	movl	%ebx, 20(%eax)
	movl	$0, 16(%eax)
	movl	$0, 12(%eax)
	jmp	.L927
	.cfi_endproc
.LFE142:
	.size	__asl_sched_nbrhs_nomem_dctrl_const_t, .-__asl_sched_nbrhs_nomem_dctrl_const_t
	.p2align 4,,15
	.globl	__asl_sched_nbrhs_nomem_dctrl_const_last
	.type	__asl_sched_nbrhs_nomem_dctrl_const_last, @function
__asl_sched_nbrhs_nomem_dctrl_const_last:
.LFB143:
	.cfi_startproc
	pushl	%ebx
	.cfi_def_cfa_offset 8
	.cfi_offset 3, -8
	call	__x86.get_pc_thunk.bx
	addl	$_GLOBAL_OFFSET_TABLE_, %ebx
	subl	$8, %esp
	.cfi_def_cfa_offset 16
	movl	16(%esp), %eax
	movl	8(%eax), %edx
	testl	%edx, %edx
	jne	.L943
	movl	$1, 8(%eax)
.L941:
	movl	__last_nb_hp@GOT(%ebx), %edx
	movl	(%edx), %edx
	movl	24(%edx), %ecx
	movl	%eax, 44(%ecx)
	movl	%eax, 24(%edx)
	addl	$8, %esp
	.cfi_remember_state
	.cfi_def_cfa_offset 8
	popl	%ebx
	.cfi_restore 3
	.cfi_def_cfa_offset 4
	ret
	.p2align 4,,10
	.p2align 3
.L943:
	.cfi_restore_state
	call	asl_loc_get_new_event_nb
	jmp	.L941
	.cfi_endproc
.LFE143:
	.size	__asl_sched_nbrhs_nomem_dctrl_const_last, .-__asl_sched_nbrhs_nomem_dctrl_const_last
	.p2align 4,,15
	.globl	__asl_schd_nb_vardel_rhsconst_dctrl
	.type	__asl_schd_nb_vardel_rhsconst_dctrl, @function
__asl_schd_nb_vardel_rhsconst_dctrl:
.LFB144:
	.cfi_startproc
	pushl	%ebp
	.cfi_def_cfa_offset 8
	.cfi_offset 5, -8
	pushl	%edi
	.cfi_def_cfa_offset 12
	.cfi_offset 7, -12
	pushl	%esi
	.cfi_def_cfa_offset 16
	.cfi_offset 6, -16
	pushl	%ebx
	.cfi_def_cfa_offset 20
	.cfi_offset 3, -20
	call	__x86.get_pc_thunk.bx
	addl	$_GLOBAL_OFFSET_TABLE_, %ebx
	subl	$28, %esp
	.cfi_def_cfa_offset 48
	movl	52(%esp), %esi
	movl	48(%esp), %edi
	movl	8(%esi), %eax
	testl	%eax, %eax
	jne	.L955
	movl	$1, 8(%esi)
.L946:
	movl	16(%edi), %edx
	subl	$8, %esp
	.cfi_def_cfa_offset 56
	movl	(%edx), %eax
	shrl	$13, %eax
	andl	$31, %eax
	pushl	%eax
	.cfi_def_cfa_offset 60
	pushl	8(%edx)
	.cfi_def_cfa_offset 64
	call	__get_del@PLT
	movl	__simtime@GOT(%ebx), %ecx
	movl	%eax, %edi
	movl	%eax, 24(%esp)
	movl	%edx, 28(%esp)
	movl	%edx, %ebp
	addl	(%ecx), %edi
	adcl	4(%ecx), %ebp
	addl	$16, %esp
	.cfi_def_cfa_offset 48
	movl	8(%esp), %eax
	movl	12(%esp), %edx
	movl	%edi, 24(%esi)
	orl	%eax, %edx
	movl	%ebp, 28(%esi)
	jne	.L947
	movl	__nb_te_endp@GOT(%ebx), %eax
	movl	(%eax), %edx
	movl	%esi, (%eax)
	movl	%esi, 44(%edx)
.L944:
	addl	$28, %esp
	.cfi_remember_state
	.cfi_def_cfa_offset 20
	popl	%ebx
	.cfi_restore 3
	.cfi_def_cfa_offset 16
	popl	%esi
	.cfi_restore 6
	.cfi_def_cfa_offset 12
	popl	%edi
	.cfi_restore 7
	.cfi_def_cfa_offset 8
	popl	%ebp
	.cfi_restore 5
	.cfi_def_cfa_offset 4
	ret
	.p2align 4,,10
	.p2align 3
.L947:
	.cfi_restore_state
	movl	__last_nb_hp@GOT(%ebx), %eax
	movl	%eax, 8(%esp)
	movl	(%eax), %eax
	movl	4(%eax), %edx
	movl	8(%eax), %ecx
	xorl	%edi, %edx
	xorl	%ebp, %ecx
	orl	%edx, %ecx
	je	.L956
	movl	%ebp, %eax
	movl	__time_hash@GOT(%ebx), %edx
	xorl	%edi, %eax
	imull	$-1640531535, %eax, %eax
	andl	$4095, %eax
	movl	(%edx,%eax,4), %edx
	testl	%edx, %edx
	je	.L957
	movl	4(%edx), %eax
	movl	8(%edx), %ecx
	xorl	%edi, %eax
	xorl	%ebp, %ecx
	orl	%eax, %ecx
	jne	.L952
	movl	8(%esp), %eax
	movl	%edx, (%eax)
	movl	24(%edx), %eax
	movl	%esi, 24(%edx)
	testl	%eax, %eax
	je	.L958
	movl	%esi, 44(%eax)
	jmp	.L944
	.p2align 4,,10
	.p2align 3
.L955:
	movl	%esi, %eax
	call	asl_loc_get_new_event_nb
	movl	%eax, %esi
	jmp	.L946
	.p2align 4,,10
	.p2align 3
.L952:
	addl	$28, %esp
	.cfi_remember_state
	.cfi_def_cfa_offset 20
	movl	%esi, %eax
	popl	%ebx
	.cfi_restore 3
	.cfi_def_cfa_offset 16
	popl	%esi
	.cfi_restore 6
	.cfi_def_cfa_offset 12
	popl	%edi
	.cfi_restore 7
	.cfi_def_cfa_offset 8
	popl	%ebp
	.cfi_restore 5
	.cfi_def_cfa_offset 4
	jmp	asl_loc_nb_conflict_list
	.p2align 4,,10
	.p2align 3
.L956:
	.cfi_restore_state
	movl	24(%eax), %edx
	movl	%esi, 24(%eax)
	testl	%edx, %edx
	je	.L959
	movl	%esi, 44(%edx)
	jmp	.L944
	.p2align 4,,10
	.p2align 3
.L959:
	movl	%esi, 20(%eax)
	jmp	.L944
	.p2align 4,,10
	.p2align 3
.L957:
	movl	%eax, %edx
	movl	%esi, %eax
	call	asl_loc_add_new_heap_time
	movl	8(%esp), %ebx
	movl	%esi, 24(%eax)
	movl	%esi, 20(%eax)
	movl	$0, 16(%eax)
	movl	$0, 12(%eax)
	movl	%eax, (%ebx)
	jmp	.L944
	.p2align 4,,10
	.p2align 3
.L958:
	movl	%esi, 20(%edx)
	jmp	.L944
	.cfi_endproc
.LFE144:
	.size	__asl_schd_nb_vardel_rhsconst_dctrl, .-__asl_schd_nb_vardel_rhsconst_dctrl
	.p2align 4,,15
	.globl	__asl_sched_nbrhs_dctrl
	.type	__asl_sched_nbrhs_dctrl, @function
__asl_sched_nbrhs_dctrl:
.LFB145:
	.cfi_startproc
	pushl	%ebp
	.cfi_def_cfa_offset 8
	.cfi_offset 5, -8
	pushl	%edi
	.cfi_def_cfa_offset 12
	.cfi_offset 7, -12
	pushl	%esi
	.cfi_def_cfa_offset 16
	.cfi_offset 6, -16
	pushl	%ebx
	.cfi_def_cfa_offset 20
	.cfi_offset 3, -20
	call	__x86.get_pc_thunk.bx
	addl	$_GLOBAL_OFFSET_TABLE_, %ebx
	subl	$28, %esp
	.cfi_def_cfa_offset 48
	movl	52(%esp), %esi
	movl	8(%esi), %eax
	testl	%eax, %eax
	jne	.L971
	movl	$1, 8(%esi)
.L962:
	movl	48(%esp), %eax
	subl	$8, %esp
	.cfi_def_cfa_offset 56
	movl	16(%eax), %edx
	movl	(%edx), %eax
	shrl	$13, %eax
	andl	$31, %eax
	pushl	%eax
	.cfi_def_cfa_offset 60
	pushl	8(%edx)
	.cfi_def_cfa_offset 64
	call	__get_del@PLT
	movl	__simtime@GOT(%ebx), %ecx
	movl	%eax, %edi
	movl	%eax, 24(%esp)
	movl	%edx, 28(%esp)
	movl	%edx, %ebp
	addl	(%ecx), %edi
	adcl	4(%ecx), %ebp
	addl	$16, %esp
	.cfi_def_cfa_offset 48
	movl	8(%esp), %eax
	movl	12(%esp), %edx
	movl	%edi, 24(%esi)
	orl	%eax, %edx
	movl	%ebp, 28(%esi)
	jne	.L963
	movl	__nb_te_endp@GOT(%ebx), %eax
	movl	(%eax), %edx
	movl	%esi, (%eax)
	movl	%esi, 44(%edx)
.L964:
	movl	4(%esi), %eax
	addl	$28, %esp
	.cfi_remember_state
	.cfi_def_cfa_offset 20
	popl	%ebx
	.cfi_restore 3
	.cfi_def_cfa_offset 16
	popl	%esi
	.cfi_restore 6
	.cfi_def_cfa_offset 12
	popl	%edi
	.cfi_restore 7
	.cfi_def_cfa_offset 8
	popl	%ebp
	.cfi_restore 5
	.cfi_def_cfa_offset 4
	ret
	.p2align 4,,10
	.p2align 3
.L963:
	.cfi_restore_state
	movl	__last_nb_hp@GOT(%ebx), %eax
	movl	%eax, 8(%esp)
	movl	(%eax), %eax
	movl	4(%eax), %edx
	movl	8(%eax), %ecx
	xorl	%edi, %edx
	xorl	%ebp, %ecx
	orl	%edx, %ecx
	je	.L972
	movl	%ebp, %eax
	movl	__time_hash@GOT(%ebx), %edx
	xorl	%edi, %eax
	imull	$-1640531535, %eax, %eax
	andl	$4095, %eax
	movl	(%edx,%eax,4), %edx
	testl	%edx, %edx
	je	.L973
	movl	4(%edx), %eax
	movl	8(%edx), %ecx
	xorl	%edi, %eax
	xorl	%ebp, %ecx
	orl	%eax, %ecx
	jne	.L968
	movl	8(%esp), %eax
	movl	%edx, (%eax)
	movl	24(%edx), %eax
	movl	%esi, 24(%edx)
	testl	%eax, %eax
	je	.L974
	movl	%esi, 44(%eax)
	jmp	.L964
	.p2align 4,,10
	.p2align 3
.L971:
	movl	56(%esp), %edx
	movl	%esi, %eax
	call	asl_loc_get_new_nbmem_event
	movl	%eax, %esi
	jmp	.L962
	.p2align 4,,10
	.p2align 3
.L968:
	movl	%esi, %eax
	call	asl_loc_nb_conflict_list
	movl	4(%esi), %eax
	addl	$28, %esp
	.cfi_remember_state
	.cfi_def_cfa_offset 20
	popl	%ebx
	.cfi_restore 3
	.cfi_def_cfa_offset 16
	popl	%esi
	.cfi_restore 6
	.cfi_def_cfa_offset 12
	popl	%edi
	.cfi_restore 7
	.cfi_def_cfa_offset 8
	popl	%ebp
	.cfi_restore 5
	.cfi_def_cfa_offset 4
	ret
	.p2align 4,,10
	.p2align 3
.L972:
	.cfi_restore_state
	movl	24(%eax), %edx
	movl	%esi, 24(%eax)
	testl	%edx, %edx
	je	.L975
	movl	%esi, 44(%edx)
	jmp	.L964
	.p2align 4,,10
	.p2align 3
.L975:
	movl	%esi, 20(%eax)
	jmp	.L964
	.p2align 4,,10
	.p2align 3
.L973:
	movl	%eax, %edx
	movl	%esi, %eax
	call	asl_loc_add_new_heap_time
	movl	8(%esp), %ebx
	movl	%esi, 24(%eax)
	movl	%esi, 20(%eax)
	movl	$0, 16(%eax)
	movl	$0, 12(%eax)
	movl	%eax, (%ebx)
	jmp	.L964
	.p2align 4,,10
	.p2align 3
.L974:
	movl	%esi, 20(%edx)
	jmp	.L964
	.cfi_endproc
.LFE145:
	.size	__asl_sched_nbrhs_dctrl, .-__asl_sched_nbrhs_dctrl
	.p2align 4,,15
	.globl	__asl_sched_nbrhs_dctrl_const
	.type	__asl_sched_nbrhs_dctrl_const, @function
__asl_sched_nbrhs_dctrl_const:
.LFB146:
	.cfi_startproc
	pushl	%ebp
	.cfi_def_cfa_offset 8
	.cfi_offset 5, -8
	pushl	%edi
	.cfi_def_cfa_offset 12
	.cfi_offset 7, -12
	pushl	%esi
	.cfi_def_cfa_offset 16
	.cfi_offset 6, -16
	pushl	%ebx
	.cfi_def_cfa_offset 20
	.cfi_offset 3, -20
	call	__x86.get_pc_thunk.si
	addl	$_GLOBAL_OFFSET_TABLE_, %esi
	subl	$28, %esp
	.cfi_def_cfa_offset 48
	movl	48(%esp), %ebx
	movl	8(%ebx), %eax
	testl	%eax, %eax
	jne	.L986
	movl	$1, 8(%ebx)
.L978:
	movl	__simtime@GOT(%esi), %eax
	movl	__last_nb_hp@GOT(%esi), %edi
	movl	4(%eax), %edx
	movl	(%eax), %eax
	addl	36(%ebx), %eax
	movl	(%edi), %ecx
	adcl	40(%ebx), %edx
	movl	%eax, 24(%ebx)
	movl	%eax, 8(%esp)
	movl	%edx, 12(%esp)
	xorl	4(%ecx), %eax
	movl	12(%esp), %ebp
	xorl	8(%ecx), %ebp
	movl	%edx, 28(%ebx)
	orl	%ebp, %eax
	je	.L987
	movl	12(%esp), %edx
	movl	8(%esp), %eax
	movl	__time_hash@GOT(%esi), %esi
	movl	%edx, %ecx
	xorl	%eax, %ecx
	imull	$-1640531535, %ecx, %ecx
	andl	$4095, %ecx
	movl	(%esi,%ecx,4), %esi
	testl	%esi, %esi
	je	.L988
	movl	8(%esp), %edx
	movl	4(%esi), %eax
	movl	12(%esp), %ecx
	xorl	%edx, %eax
	movl	8(%esi), %edx
	xorl	%ecx, %edx
	orl	%eax, %edx
	jne	.L983
	movl	24(%esi), %eax
	movl	%esi, (%edi)
	movl	%ebx, 24(%esi)
	testl	%eax, %eax
	je	.L989
.L984:
	movl	%ebx, 44(%eax)
.L981:
	movl	4(%ebx), %eax
	addl	$28, %esp
	.cfi_remember_state
	.cfi_def_cfa_offset 20
	popl	%ebx
	.cfi_restore 3
	.cfi_def_cfa_offset 16
	popl	%esi
	.cfi_restore 6
	.cfi_def_cfa_offset 12
	popl	%edi
	.cfi_restore 7
	.cfi_def_cfa_offset 8
	popl	%ebp
	.cfi_restore 5
	.cfi_def_cfa_offset 4
	ret
	.p2align 4,,10
	.p2align 3
.L983:
	.cfi_restore_state
	movl	%ebx, %eax
	movl	%esi, %edx
	call	asl_loc_nb_conflict_list
	movl	4(%ebx), %eax
	addl	$28, %esp
	.cfi_remember_state
	.cfi_def_cfa_offset 20
	popl	%ebx
	.cfi_restore 3
	.cfi_def_cfa_offset 16
	popl	%esi
	.cfi_restore 6
	.cfi_def_cfa_offset 12
	popl	%edi
	.cfi_restore 7
	.cfi_def_cfa_offset 8
	popl	%ebp
	.cfi_restore 5
	.cfi_def_cfa_offset 4
	ret
	.p2align 4,,10
	.p2align 3
.L987:
	.cfi_restore_state
	movl	24(%ecx), %eax
	movl	%ebx, 24(%ecx)
	testl	%eax, %eax
	jne	.L984
	movl	%ebx, 20(%ecx)
	movl	4(%ebx), %eax
	addl	$28, %esp
	.cfi_remember_state
	.cfi_def_cfa_offset 20
	popl	%ebx
	.cfi_restore 3
	.cfi_def_cfa_offset 16
	popl	%esi
	.cfi_restore 6
	.cfi_def_cfa_offset 12
	popl	%edi
	.cfi_restore 7
	.cfi_def_cfa_offset 8
	popl	%ebp
	.cfi_restore 5
	.cfi_def_cfa_offset 4
	ret
	.p2align 4,,10
	.p2align 3
.L986:
	.cfi_restore_state
	movl	52(%esp), %edx
	movl	%ebx, %eax
	call	asl_loc_get_new_nbmem_event
	movl	%eax, %ebx
	jmp	.L978
	.p2align 4,,10
	.p2align 3
.L988:
	movl	%ebx, %eax
	movl	%ecx, %edx
	call	asl_loc_add_new_heap_time
	movl	%ebx, 24(%eax)
	movl	%ebx, 20(%eax)
	movl	$0, 16(%eax)
	movl	$0, 12(%eax)
	movl	%eax, (%edi)
	movl	4(%ebx), %eax
	addl	$28, %esp
	.cfi_remember_state
	.cfi_def_cfa_offset 20
	popl	%ebx
	.cfi_restore 3
	.cfi_def_cfa_offset 16
	popl	%esi
	.cfi_restore 6
	.cfi_def_cfa_offset 12
	popl	%edi
	.cfi_restore 7
	.cfi_def_cfa_offset 8
	popl	%ebp
	.cfi_restore 5
	.cfi_def_cfa_offset 4
	ret
	.p2align 4,,10
	.p2align 3
.L989:
	.cfi_restore_state
	movl	%ebx, 20(%esi)
	jmp	.L981
	.cfi_endproc
.LFE146:
	.size	__asl_sched_nbrhs_dctrl_const, .-__asl_sched_nbrhs_dctrl_const
	.p2align 4,,15
	.globl	__asl_sched_nbrhs_dctrl_const_t
	.type	__asl_sched_nbrhs_dctrl_const_t, @function
__asl_sched_nbrhs_dctrl_const_t:
.LFB147:
	.cfi_startproc
	pushl	%ebp
	.cfi_def_cfa_offset 8
	.cfi_offset 5, -8
	pushl	%edi
	.cfi_def_cfa_offset 12
	.cfi_offset 7, -12
	pushl	%esi
	.cfi_def_cfa_offset 16
	.cfi_offset 6, -16
	pushl	%ebx
	.cfi_def_cfa_offset 20
	.cfi_offset 3, -20
	call	__x86.get_pc_thunk.si
	addl	$_GLOBAL_OFFSET_TABLE_, %esi
	subl	$12, %esp
	.cfi_def_cfa_offset 32
	movl	32(%esp), %ebx
	movl	8(%ebx), %eax
	testl	%eax, %eax
	jne	.L998
	movl	__last_nb_hp@GOT(%esi), %edi
	movl	$1, 8(%ebx)
	movl	4(%ebx), %ebp
	movl	(%edi), %eax
	testl	%eax, %eax
	je	.L999
.L993:
	movl	24(%eax), %edx
	movl	%ebx, 44(%edx)
	movl	%ebx, 24(%eax)
.L990:
	addl	$12, %esp
	.cfi_remember_state
	.cfi_def_cfa_offset 20
	movl	%ebp, %eax
	popl	%ebx
	.cfi_restore 3
	.cfi_def_cfa_offset 16
	popl	%esi
	.cfi_restore 6
	.cfi_def_cfa_offset 12
	popl	%edi
	.cfi_restore 7
	.cfi_def_cfa_offset 8
	popl	%ebp
	.cfi_restore 5
	.cfi_def_cfa_offset 4
	ret
	.p2align 4,,10
	.p2align 3
.L998:
	.cfi_restore_state
	movl	36(%esp), %edx
	movl	%ebx, %eax
	call	asl_loc_get_new_nbmem_event
	movl	__last_nb_hp@GOT(%esi), %edi
	movl	%eax, %ebx
	movl	4(%ebx), %ebp
	movl	(%edi), %eax
	testl	%eax, %eax
	jne	.L993
.L999:
	movl	__simtime@GOT(%esi), %eax
	movl	__time_hash@GOT(%esi), %esi
	movl	4(%eax), %edx
	movl	(%eax), %eax
	addl	36(%ebx), %eax
	adcl	40(%ebx), %edx
	movl	%eax, 24(%ebx)
	movl	%edx, %ecx
	movl	%edx, 28(%ebx)
	xorl	%eax, %ecx
	imull	$-1640531535, %ecx, %ecx
	andl	$4095, %ecx
	movl	(%esi,%ecx,4), %esi
	testl	%esi, %esi
	je	.L1000
	movl	%edx, %ecx
	movl	%eax, %edx
	movl	4(%esi), %eax
	xorl	%edx, %eax
	movl	8(%esi), %edx
	xorl	%ecx, %edx
	orl	%eax, %edx
	je	.L1001
	movl	%esi, %edx
	movl	%ebx, %eax
	call	asl_loc_nb_conflict_list
	jmp	.L990
	.p2align 4,,10
	.p2align 3
.L1001:
	movl	%esi, (%edi)
	movl	%ebx, 24(%esi)
	movl	%ebx, 20(%esi)
	jmp	.L990
	.p2align 4,,10
	.p2align 3
.L1000:
	movl	%ecx, %edx
	movl	%ebx, %eax
	call	asl_loc_add_new_heap_time
	movl	%eax, (%edi)
	movl	%ebx, 24(%eax)
	movl	%ebx, 20(%eax)
	movl	$0, 16(%eax)
	movl	$0, 12(%eax)
	jmp	.L990
	.cfi_endproc
.LFE147:
	.size	__asl_sched_nbrhs_dctrl_const_t, .-__asl_sched_nbrhs_dctrl_const_t
	.p2align 4,,15
	.globl	__asl_sched_nbrhs_dctrl_const_last
	.type	__asl_sched_nbrhs_dctrl_const_last, @function
__asl_sched_nbrhs_dctrl_const_last:
.LFB148:
	.cfi_startproc
	pushl	%ebx
	.cfi_def_cfa_offset 8
	.cfi_offset 3, -8
	call	__x86.get_pc_thunk.bx
	addl	$_GLOBAL_OFFSET_TABLE_, %ebx
	subl	$8, %esp
	.cfi_def_cfa_offset 16
	movl	16(%esp), %eax
	movl	8(%eax), %edx
	testl	%edx, %edx
	jne	.L1006
	movl	$1, 8(%eax)
.L1004:
	movl	__last_nb_hp@GOT(%ebx), %edx
	movl	(%edx), %edx
	movl	24(%edx), %ecx
	movl	%eax, 44(%ecx)
	movl	%eax, 24(%edx)
	movl	4(%eax), %eax
	addl	$8, %esp
	.cfi_remember_state
	.cfi_def_cfa_offset 8
	popl	%ebx
	.cfi_restore 3
	.cfi_def_cfa_offset 4
	ret
	.p2align 4,,10
	.p2align 3
.L1006:
	.cfi_restore_state
	movl	20(%esp), %edx
	call	asl_loc_get_new_nbmem_event
	jmp	.L1004
	.cfi_endproc
.LFE148:
	.size	__asl_sched_nbrhs_dctrl_const_last, .-__asl_sched_nbrhs_dctrl_const_last
	.p2align 4,,15
	.globl	__asl_sched_nbrhs_varndx_dctrl
	.type	__asl_sched_nbrhs_varndx_dctrl, @function
__asl_sched_nbrhs_varndx_dctrl:
.LFB149:
	.cfi_startproc
	pushl	%ebp
	.cfi_def_cfa_offset 8
	.cfi_offset 5, -8
	pushl	%edi
	.cfi_def_cfa_offset 12
	.cfi_offset 7, -12
	pushl	%esi
	.cfi_def_cfa_offset 16
	.cfi_offset 6, -16
	pushl	%ebx
	.cfi_def_cfa_offset 20
	.cfi_offset 3, -20
	call	__x86.get_pc_thunk.bx
	addl	$_GLOBAL_OFFSET_TABLE_, %ebx
	subl	$28, %esp
	.cfi_def_cfa_offset 48
	movl	60(%esp), %esi
	movl	8(%esi), %eax
	testl	%eax, %eax
	jne	.L1018
	movl	$1, 8(%esi)
.L1009:
	movl	48(%esp), %eax
	subl	$8, %esp
	.cfi_def_cfa_offset 56
	movl	16(%eax), %edx
	movl	(%edx), %eax
	shrl	$13, %eax
	andl	$31, %eax
	pushl	%eax
	.cfi_def_cfa_offset 60
	pushl	8(%edx)
	.cfi_def_cfa_offset 64
	call	__get_del@PLT
	movl	__simtime@GOT(%ebx), %ecx
	movl	%eax, %edi
	movl	%eax, 24(%esp)
	movl	%edx, 28(%esp)
	movl	%edx, %ebp
	addl	(%ecx), %edi
	adcl	4(%ecx), %ebp
	movl	68(%esp), %ecx
	addl	$16, %esp
	.cfi_def_cfa_offset 48
	movl	8(%esp), %eax
	movl	12(%esp), %edx
	movl	%edi, 24(%esi)
	movl	%ecx, 52(%esi)
	orl	%eax, %edx
	movl	%ebp, 28(%esi)
	jne	.L1010
	movl	__nb_te_endp@GOT(%ebx), %eax
	movl	(%eax), %edx
	movl	%esi, (%eax)
	movl	%esi, 44(%edx)
.L1011:
	movl	4(%esi), %eax
	addl	$28, %esp
	.cfi_remember_state
	.cfi_def_cfa_offset 20
	popl	%ebx
	.cfi_restore 3
	.cfi_def_cfa_offset 16
	popl	%esi
	.cfi_restore 6
	.cfi_def_cfa_offset 12
	popl	%edi
	.cfi_restore 7
	.cfi_def_cfa_offset 8
	popl	%ebp
	.cfi_restore 5
	.cfi_def_cfa_offset 4
	ret
	.p2align 4,,10
	.p2align 3
.L1010:
	.cfi_restore_state
	movl	__last_nb_hp@GOT(%ebx), %eax
	movl	%eax, 8(%esp)
	movl	(%eax), %eax
	movl	4(%eax), %edx
	movl	8(%eax), %ecx
	xorl	%edi, %edx
	xorl	%ebp, %ecx
	orl	%edx, %ecx
	je	.L1019
	movl	%ebp, %eax
	movl	__time_hash@GOT(%ebx), %edx
	xorl	%edi, %eax
	imull	$-1640531535, %eax, %eax
	andl	$4095, %eax
	movl	(%edx,%eax,4), %edx
	testl	%edx, %edx
	je	.L1020
	movl	4(%edx), %eax
	movl	8(%edx), %ecx
	xorl	%edi, %eax
	xorl	%ebp, %ecx
	orl	%eax, %ecx
	jne	.L1015
	movl	8(%esp), %eax
	movl	%edx, (%eax)
	movl	24(%edx), %eax
	movl	%esi, 24(%edx)
	testl	%eax, %eax
	je	.L1021
	movl	%esi, 44(%eax)
	jmp	.L1011
	.p2align 4,,10
	.p2align 3
.L1018:
	movl	56(%esp), %edx
	movl	%esi, %eax
	call	asl_loc_get_new_nbmem_event
	movl	%eax, %esi
	jmp	.L1009
	.p2align 4,,10
	.p2align 3
.L1015:
	movl	%esi, %eax
	call	asl_loc_nb_conflict_list
	movl	4(%esi), %eax
	addl	$28, %esp
	.cfi_remember_state
	.cfi_def_cfa_offset 20
	popl	%ebx
	.cfi_restore 3
	.cfi_def_cfa_offset 16
	popl	%esi
	.cfi_restore 6
	.cfi_def_cfa_offset 12
	popl	%edi
	.cfi_restore 7
	.cfi_def_cfa_offset 8
	popl	%ebp
	.cfi_restore 5
	.cfi_def_cfa_offset 4
	ret
	.p2align 4,,10
	.p2align 3
.L1019:
	.cfi_restore_state
	movl	24(%eax), %edx
	movl	%esi, 24(%eax)
	testl	%edx, %edx
	je	.L1022
	movl	%esi, 44(%edx)
	jmp	.L1011
	.p2align 4,,10
	.p2align 3
.L1022:
	movl	%esi, 20(%eax)
	jmp	.L1011
	.p2align 4,,10
	.p2align 3
.L1020:
	movl	%eax, %edx
	movl	%esi, %eax
	call	asl_loc_add_new_heap_time
	movl	8(%esp), %ebx
	movl	%esi, 24(%eax)
	movl	%esi, 20(%eax)
	movl	$0, 16(%eax)
	movl	$0, 12(%eax)
	movl	%eax, (%ebx)
	jmp	.L1011
	.p2align 4,,10
	.p2align 3
.L1021:
	movl	%esi, 20(%edx)
	jmp	.L1011
	.cfi_endproc
.LFE149:
	.size	__asl_sched_nbrhs_varndx_dctrl, .-__asl_sched_nbrhs_varndx_dctrl
	.p2align 4,,15
	.globl	__asl_sched_nbrhs_varndx_dctrl_const
	.type	__asl_sched_nbrhs_varndx_dctrl_const, @function
__asl_sched_nbrhs_varndx_dctrl_const:
.LFB150:
	.cfi_startproc
	pushl	%ebp
	.cfi_def_cfa_offset 8
	.cfi_offset 5, -8
	pushl	%edi
	.cfi_def_cfa_offset 12
	.cfi_offset 7, -12
	pushl	%esi
	.cfi_def_cfa_offset 16
	.cfi_offset 6, -16
	pushl	%ebx
	.cfi_def_cfa_offset 20
	.cfi_offset 3, -20
	call	__x86.get_pc_thunk.si
	addl	$_GLOBAL_OFFSET_TABLE_, %esi
	subl	$28, %esp
	.cfi_def_cfa_offset 48
	movl	56(%esp), %ebx
	movl	8(%ebx), %eax
	testl	%eax, %eax
	jne	.L1033
	movl	$1, 8(%ebx)
.L1025:
	movl	__simtime@GOT(%esi), %eax
	movl	48(%esp), %ecx
	movl	__last_nb_hp@GOT(%esi), %edi
	movl	4(%eax), %edx
	movl	(%eax), %eax
	addl	36(%ebx), %eax
	movl	%ecx, 52(%ebx)
	adcl	40(%ebx), %edx
	movl	(%edi), %ecx
	movl	%eax, 24(%ebx)
	movl	%eax, 8(%esp)
	movl	%edx, 12(%esp)
	xorl	4(%ecx), %eax
	movl	12(%esp), %ebp
	xorl	8(%ecx), %ebp
	movl	%edx, 28(%ebx)
	orl	%ebp, %eax
	je	.L1034
	movl	12(%esp), %edx
	movl	8(%esp), %eax
	movl	__time_hash@GOT(%esi), %esi
	movl	%edx, %ecx
	xorl	%eax, %ecx
	imull	$-1640531535, %ecx, %ecx
	andl	$4095, %ecx
	movl	(%esi,%ecx,4), %esi
	testl	%esi, %esi
	je	.L1035
	movl	8(%esp), %edx
	movl	4(%esi), %eax
	movl	12(%esp), %ecx
	xorl	%edx, %eax
	movl	8(%esi), %edx
	xorl	%ecx, %edx
	orl	%eax, %edx
	jne	.L1030
	movl	24(%esi), %eax
	movl	%esi, (%edi)
	movl	%ebx, 24(%esi)
	testl	%eax, %eax
	je	.L1036
.L1031:
	movl	%ebx, 44(%eax)
.L1028:
	movl	4(%ebx), %eax
	addl	$28, %esp
	.cfi_remember_state
	.cfi_def_cfa_offset 20
	popl	%ebx
	.cfi_restore 3
	.cfi_def_cfa_offset 16
	popl	%esi
	.cfi_restore 6
	.cfi_def_cfa_offset 12
	popl	%edi
	.cfi_restore 7
	.cfi_def_cfa_offset 8
	popl	%ebp
	.cfi_restore 5
	.cfi_def_cfa_offset 4
	ret
	.p2align 4,,10
	.p2align 3
.L1030:
	.cfi_restore_state
	movl	%ebx, %eax
	movl	%esi, %edx
	call	asl_loc_nb_conflict_list
	movl	4(%ebx), %eax
	addl	$28, %esp
	.cfi_remember_state
	.cfi_def_cfa_offset 20
	popl	%ebx
	.cfi_restore 3
	.cfi_def_cfa_offset 16
	popl	%esi
	.cfi_restore 6
	.cfi_def_cfa_offset 12
	popl	%edi
	.cfi_restore 7
	.cfi_def_cfa_offset 8
	popl	%ebp
	.cfi_restore 5
	.cfi_def_cfa_offset 4
	ret
	.p2align 4,,10
	.p2align 3
.L1034:
	.cfi_restore_state
	movl	24(%ecx), %eax
	movl	%ebx, 24(%ecx)
	testl	%eax, %eax
	jne	.L1031
	movl	%ebx, 20(%ecx)
	movl	4(%ebx), %eax
	addl	$28, %esp
	.cfi_remember_state
	.cfi_def_cfa_offset 20
	popl	%ebx
	.cfi_restore 3
	.cfi_def_cfa_offset 16
	popl	%esi
	.cfi_restore 6
	.cfi_def_cfa_offset 12
	popl	%edi
	.cfi_restore 7
	.cfi_def_cfa_offset 8
	popl	%ebp
	.cfi_restore 5
	.cfi_def_cfa_offset 4
	ret
	.p2align 4,,10
	.p2align 3
.L1033:
	.cfi_restore_state
	movl	52(%esp), %edx
	movl	%ebx, %eax
	call	asl_loc_get_new_nbmem_event
	movl	%eax, %ebx
	jmp	.L1025
	.p2align 4,,10
	.p2align 3
.L1035:
	movl	%ebx, %eax
	movl	%ecx, %edx
	call	asl_loc_add_new_heap_time
	movl	%ebx, 24(%eax)
	movl	%ebx, 20(%eax)
	movl	$0, 16(%eax)
	movl	$0, 12(%eax)
	movl	%eax, (%edi)
	movl	4(%ebx), %eax
	addl	$28, %esp
	.cfi_remember_state
	.cfi_def_cfa_offset 20
	popl	%ebx
	.cfi_restore 3
	.cfi_def_cfa_offset 16
	popl	%esi
	.cfi_restore 6
	.cfi_def_cfa_offset 12
	popl	%edi
	.cfi_restore 7
	.cfi_def_cfa_offset 8
	popl	%ebp
	.cfi_restore 5
	.cfi_def_cfa_offset 4
	ret
	.p2align 4,,10
	.p2align 3
.L1036:
	.cfi_restore_state
	movl	%ebx, 20(%esi)
	jmp	.L1028
	.cfi_endproc
.LFE150:
	.size	__asl_sched_nbrhs_varndx_dctrl_const, .-__asl_sched_nbrhs_varndx_dctrl_const
	.p2align 4,,15
	.globl	__asl_sched_nbrhs_varndx_dctrl_const_t
	.type	__asl_sched_nbrhs_varndx_dctrl_const_t, @function
__asl_sched_nbrhs_varndx_dctrl_const_t:
.LFB151:
	.cfi_startproc
	pushl	%ebp
	.cfi_def_cfa_offset 8
	.cfi_offset 5, -8
	pushl	%edi
	.cfi_def_cfa_offset 12
	.cfi_offset 7, -12
	pushl	%esi
	.cfi_def_cfa_offset 16
	.cfi_offset 6, -16
	pushl	%ebx
	.cfi_def_cfa_offset 20
	.cfi_offset 3, -20
	call	__x86.get_pc_thunk.si
	addl	$_GLOBAL_OFFSET_TABLE_, %esi
	subl	$12, %esp
	.cfi_def_cfa_offset 32
	movl	40(%esp), %ebx
	movl	8(%ebx), %eax
	testl	%eax, %eax
	jne	.L1045
	movl	$1, 8(%ebx)
.L1039:
	movl	32(%esp), %eax
	movl	__last_nb_hp@GOT(%esi), %edi
	movl	4(%ebx), %ebp
	movl	%eax, 52(%ebx)
	movl	(%edi), %eax
	testl	%eax, %eax
	je	.L1046
	movl	24(%eax), %edx
	movl	%ebx, 44(%edx)
	movl	%ebx, 24(%eax)
.L1037:
	addl	$12, %esp
	.cfi_remember_state
	.cfi_def_cfa_offset 20
	movl	%ebp, %eax
	popl	%ebx
	.cfi_restore 3
	.cfi_def_cfa_offset 16
	popl	%esi
	.cfi_restore 6
	.cfi_def_cfa_offset 12
	popl	%edi
	.cfi_restore 7
	.cfi_def_cfa_offset 8
	popl	%ebp
	.cfi_restore 5
	.cfi_def_cfa_offset 4
	ret
	.p2align 4,,10
	.p2align 3
.L1045:
	.cfi_restore_state
	movl	36(%esp), %edx
	movl	%ebx, %eax
	call	asl_loc_get_new_nbmem_event
	movl	%eax, %ebx
	jmp	.L1039
	.p2align 4,,10
	.p2align 3
.L1046:
	movl	__simtime@GOT(%esi), %eax
	movl	__time_hash@GOT(%esi), %esi
	movl	4(%eax), %edx
	movl	(%eax), %eax
	addl	36(%ebx), %eax
	adcl	40(%ebx), %edx
	movl	%eax, 24(%ebx)
	movl	%edx, %ecx
	movl	%edx, 28(%ebx)
	xorl	%eax, %ecx
	imull	$-1640531535, %ecx, %ecx
	andl	$4095, %ecx
	movl	(%esi,%ecx,4), %esi
	testl	%esi, %esi
	je	.L1047
	movl	%edx, %ecx
	movl	%eax, %edx
	movl	4(%esi), %eax
	xorl	%edx, %eax
	movl	8(%esi), %edx
	xorl	%ecx, %edx
	orl	%eax, %edx
	je	.L1048
	movl	%esi, %edx
	movl	%ebx, %eax
	call	asl_loc_nb_conflict_list
	jmp	.L1037
	.p2align 4,,10
	.p2align 3
.L1048:
	movl	%esi, (%edi)
	movl	%ebx, 24(%esi)
	movl	%ebx, 20(%esi)
	jmp	.L1037
	.p2align 4,,10
	.p2align 3
.L1047:
	movl	%ecx, %edx
	movl	%ebx, %eax
	call	asl_loc_add_new_heap_time
	movl	%eax, (%edi)
	movl	%ebx, 24(%eax)
	movl	%ebx, 20(%eax)
	movl	$0, 16(%eax)
	movl	$0, 12(%eax)
	jmp	.L1037
	.cfi_endproc
.LFE151:
	.size	__asl_sched_nbrhs_varndx_dctrl_const_t, .-__asl_sched_nbrhs_varndx_dctrl_const_t
	.p2align 4,,15
	.globl	__asl_sched_nb_pnd0_lhs_varndx
	.type	__asl_sched_nb_pnd0_lhs_varndx, @function
__asl_sched_nb_pnd0_lhs_varndx:
.LFB152:
	.cfi_startproc
	pushl	%ebx
	.cfi_def_cfa_offset 8
	.cfi_offset 3, -8
	call	__x86.get_pc_thunk.bx
	addl	$_GLOBAL_OFFSET_TABLE_, %ebx
	subl	$8, %esp
	.cfi_def_cfa_offset 16
	movl	24(%esp), %eax
	movl	8(%eax), %edx
	testl	%edx, %edx
	jne	.L1053
	movl	$1, 8(%eax)
.L1051:
	movl	__simtime@GOT(%ebx), %edx
	movl	4(%edx), %ecx
	movl	(%edx), %edx
	movl	%edx, 24(%eax)
	movl	16(%esp), %edx
	movl	%ecx, 28(%eax)
	movl	%edx, 52(%eax)
	movl	__nb_te_endp@GOT(%ebx), %edx
	movl	(%edx), %ecx
	movl	%eax, (%edx)
	movl	%eax, 44(%ecx)
	movl	4(%eax), %eax
	addl	$8, %esp
	.cfi_remember_state
	.cfi_def_cfa_offset 8
	popl	%ebx
	.cfi_restore 3
	.cfi_def_cfa_offset 4
	ret
	.p2align 4,,10
	.p2align 3
.L1053:
	.cfi_restore_state
	movl	20(%esp), %edx
	call	asl_loc_get_new_nbmem_event
	jmp	.L1051
	.cfi_endproc
.LFE152:
	.size	__asl_sched_nb_pnd0_lhs_varndx, .-__asl_sched_nb_pnd0_lhs_varndx
	.p2align 4,,15
	.globl	__asl_sched_nbrhs_varndx_sel_dctrl
	.type	__asl_sched_nbrhs_varndx_sel_dctrl, @function
__asl_sched_nbrhs_varndx_sel_dctrl:
.LFB153:
	.cfi_startproc
	pushl	%ebp
	.cfi_def_cfa_offset 8
	.cfi_offset 5, -8
	pushl	%edi
	.cfi_def_cfa_offset 12
	.cfi_offset 7, -12
	pushl	%esi
	.cfi_def_cfa_offset 16
	.cfi_offset 6, -16
	pushl	%ebx
	.cfi_def_cfa_offset 20
	.cfi_offset 3, -20
	call	__x86.get_pc_thunk.bx
	addl	$_GLOBAL_OFFSET_TABLE_, %ebx
	subl	$28, %esp
	.cfi_def_cfa_offset 48
	movl	60(%esp), %esi
	movl	8(%esi), %eax
	testl	%eax, %eax
	jne	.L1065
	movl	$1, 8(%esi)
.L1056:
	movl	48(%esp), %eax
	subl	$8, %esp
	.cfi_def_cfa_offset 56
	movl	16(%eax), %edx
	movl	(%edx), %eax
	shrl	$13, %eax
	andl	$31, %eax
	pushl	%eax
	.cfi_def_cfa_offset 60
	pushl	8(%edx)
	.cfi_def_cfa_offset 64
	call	__get_del@PLT
	movl	__simtime@GOT(%ebx), %ecx
	movl	%eax, %edi
	movl	%edx, %ebp
	movl	%eax, 24(%esp)
	movl	%edx, 28(%esp)
	addl	(%ecx), %edi
	adcl	4(%ecx), %ebp
	movl	68(%esp), %ecx
	movl	%ecx, 52(%esi)
	movl	80(%esp), %ecx
	addl	$16, %esp
	.cfi_def_cfa_offset 48
	movl	8(%esp), %eax
	movl	12(%esp), %edx
	movl	%edi, 24(%esi)
	movl	%ebp, 28(%esi)
	movl	%ecx, 56(%esi)
	orl	%eax, %edx
	jne	.L1057
	movl	__nb_te_endp@GOT(%ebx), %eax
	movl	(%eax), %edx
	movl	%esi, (%eax)
	movl	%esi, 44(%edx)
.L1058:
	movl	4(%esi), %eax
	addl	$28, %esp
	.cfi_remember_state
	.cfi_def_cfa_offset 20
	popl	%ebx
	.cfi_restore 3
	.cfi_def_cfa_offset 16
	popl	%esi
	.cfi_restore 6
	.cfi_def_cfa_offset 12
	popl	%edi
	.cfi_restore 7
	.cfi_def_cfa_offset 8
	popl	%ebp
	.cfi_restore 5
	.cfi_def_cfa_offset 4
	ret
	.p2align 4,,10
	.p2align 3
.L1057:
	.cfi_restore_state
	movl	__last_nb_hp@GOT(%ebx), %eax
	movl	%eax, 8(%esp)
	movl	(%eax), %eax
	movl	4(%eax), %edx
	movl	8(%eax), %ecx
	xorl	%edi, %edx
	xorl	%ebp, %ecx
	orl	%edx, %ecx
	je	.L1066
	movl	%ebp, %eax
	movl	__time_hash@GOT(%ebx), %edx
	xorl	%edi, %eax
	imull	$-1640531535, %eax, %eax
	andl	$4095, %eax
	movl	(%edx,%eax,4), %edx
	testl	%edx, %edx
	je	.L1067
	movl	4(%edx), %eax
	movl	8(%edx), %ecx
	xorl	%edi, %eax
	xorl	%ebp, %ecx
	orl	%eax, %ecx
	jne	.L1062
	movl	8(%esp), %eax
	movl	%edx, (%eax)
	movl	24(%edx), %eax
	movl	%esi, 24(%edx)
	testl	%eax, %eax
	je	.L1068
	movl	%esi, 44(%eax)
	jmp	.L1058
	.p2align 4,,10
	.p2align 3
.L1065:
	movl	56(%esp), %edx
	movl	%esi, %eax
	call	asl_loc_get_new_nbmem_event
	movl	%eax, %esi
	jmp	.L1056
	.p2align 4,,10
	.p2align 3
.L1062:
	movl	%esi, %eax
	call	asl_loc_nb_conflict_list
	movl	4(%esi), %eax
	addl	$28, %esp
	.cfi_remember_state
	.cfi_def_cfa_offset 20
	popl	%ebx
	.cfi_restore 3
	.cfi_def_cfa_offset 16
	popl	%esi
	.cfi_restore 6
	.cfi_def_cfa_offset 12
	popl	%edi
	.cfi_restore 7
	.cfi_def_cfa_offset 8
	popl	%ebp
	.cfi_restore 5
	.cfi_def_cfa_offset 4
	ret
	.p2align 4,,10
	.p2align 3
.L1066:
	.cfi_restore_state
	movl	24(%eax), %edx
	movl	%esi, 24(%eax)
	testl	%edx, %edx
	je	.L1069
	movl	%esi, 44(%edx)
	jmp	.L1058
	.p2align 4,,10
	.p2align 3
.L1069:
	movl	%esi, 20(%eax)
	jmp	.L1058
	.p2align 4,,10
	.p2align 3
.L1067:
	movl	%eax, %edx
	movl	%esi, %eax
	call	asl_loc_add_new_heap_time
	movl	8(%esp), %ebx
	movl	%esi, 24(%eax)
	movl	%esi, 20(%eax)
	movl	$0, 16(%eax)
	movl	$0, 12(%eax)
	movl	%eax, (%ebx)
	jmp	.L1058
	.p2align 4,,10
	.p2align 3
.L1068:
	movl	%esi, 20(%edx)
	jmp	.L1058
	.cfi_endproc
.LFE153:
	.size	__asl_sched_nbrhs_varndx_sel_dctrl, .-__asl_sched_nbrhs_varndx_sel_dctrl
	.p2align 4,,15
	.globl	__asl_sched_nbrhs_varndx_dctrl_sel_const
	.type	__asl_sched_nbrhs_varndx_dctrl_sel_const, @function
__asl_sched_nbrhs_varndx_dctrl_sel_const:
.LFB154:
	.cfi_startproc
	pushl	%ebp
	.cfi_def_cfa_offset 8
	.cfi_offset 5, -8
	pushl	%edi
	.cfi_def_cfa_offset 12
	.cfi_offset 7, -12
	pushl	%esi
	.cfi_def_cfa_offset 16
	.cfi_offset 6, -16
	pushl	%ebx
	.cfi_def_cfa_offset 20
	.cfi_offset 3, -20
	call	__x86.get_pc_thunk.si
	addl	$_GLOBAL_OFFSET_TABLE_, %esi
	subl	$28, %esp
	.cfi_def_cfa_offset 48
	movl	56(%esp), %ebx
	movl	8(%ebx), %eax
	testl	%eax, %eax
	jne	.L1080
	movl	$1, 8(%ebx)
.L1072:
	movl	48(%esp), %ecx
	movl	__simtime@GOT(%esi), %eax
	movl	__last_nb_hp@GOT(%esi), %edi
	movl	%ecx, 52(%ebx)
	movl	60(%esp), %ecx
	movl	4(%eax), %edx
	movl	(%eax), %eax
	addl	36(%ebx), %eax
	adcl	40(%ebx), %edx
	movl	%ecx, 56(%ebx)
	movl	(%edi), %ecx
	movl	%eax, 24(%ebx)
	movl	%eax, 8(%esp)
	movl	%edx, 12(%esp)
	xorl	4(%ecx), %eax
	movl	12(%esp), %ebp
	xorl	8(%ecx), %ebp
	movl	%edx, 28(%ebx)
	orl	%ebp, %eax
	je	.L1081
	movl	12(%esp), %edx
	movl	8(%esp), %eax
	movl	__time_hash@GOT(%esi), %esi
	movl	%edx, %ecx
	xorl	%eax, %ecx
	imull	$-1640531535, %ecx, %ecx
	andl	$4095, %ecx
	movl	(%esi,%ecx,4), %esi
	testl	%esi, %esi
	je	.L1082
	movl	8(%esp), %edx
	movl	4(%esi), %eax
	movl	12(%esp), %ecx
	xorl	%edx, %eax
	movl	8(%esi), %edx
	xorl	%ecx, %edx
	orl	%eax, %edx
	jne	.L1077
	movl	24(%esi), %eax
	movl	%esi, (%edi)
	movl	%ebx, 24(%esi)
	testl	%eax, %eax
	je	.L1083
.L1078:
	movl	%ebx, 44(%eax)
.L1075:
	movl	4(%ebx), %eax
	addl	$28, %esp
	.cfi_remember_state
	.cfi_def_cfa_offset 20
	popl	%ebx
	.cfi_restore 3
	.cfi_def_cfa_offset 16
	popl	%esi
	.cfi_restore 6
	.cfi_def_cfa_offset 12
	popl	%edi
	.cfi_restore 7
	.cfi_def_cfa_offset 8
	popl	%ebp
	.cfi_restore 5
	.cfi_def_cfa_offset 4
	ret
	.p2align 4,,10
	.p2align 3
.L1077:
	.cfi_restore_state
	movl	%ebx, %eax
	movl	%esi, %edx
	call	asl_loc_nb_conflict_list
	movl	4(%ebx), %eax
	addl	$28, %esp
	.cfi_remember_state
	.cfi_def_cfa_offset 20
	popl	%ebx
	.cfi_restore 3
	.cfi_def_cfa_offset 16
	popl	%esi
	.cfi_restore 6
	.cfi_def_cfa_offset 12
	popl	%edi
	.cfi_restore 7
	.cfi_def_cfa_offset 8
	popl	%ebp
	.cfi_restore 5
	.cfi_def_cfa_offset 4
	ret
	.p2align 4,,10
	.p2align 3
.L1081:
	.cfi_restore_state
	movl	24(%ecx), %eax
	movl	%ebx, 24(%ecx)
	testl	%eax, %eax
	jne	.L1078
	movl	%ebx, 20(%ecx)
	movl	4(%ebx), %eax
	addl	$28, %esp
	.cfi_remember_state
	.cfi_def_cfa_offset 20
	popl	%ebx
	.cfi_restore 3
	.cfi_def_cfa_offset 16
	popl	%esi
	.cfi_restore 6
	.cfi_def_cfa_offset 12
	popl	%edi
	.cfi_restore 7
	.cfi_def_cfa_offset 8
	popl	%ebp
	.cfi_restore 5
	.cfi_def_cfa_offset 4
	ret
	.p2align 4,,10
	.p2align 3
.L1080:
	.cfi_restore_state
	movl	52(%esp), %edx
	movl	%ebx, %eax
	call	asl_loc_get_new_nbmem_event
	movl	%eax, %ebx
	jmp	.L1072
	.p2align 4,,10
	.p2align 3
.L1082:
	movl	%ebx, %eax
	movl	%ecx, %edx
	call	asl_loc_add_new_heap_time
	movl	%ebx, 24(%eax)
	movl	%ebx, 20(%eax)
	movl	$0, 16(%eax)
	movl	$0, 12(%eax)
	movl	%eax, (%edi)
	movl	4(%ebx), %eax
	addl	$28, %esp
	.cfi_remember_state
	.cfi_def_cfa_offset 20
	popl	%ebx
	.cfi_restore 3
	.cfi_def_cfa_offset 16
	popl	%esi
	.cfi_restore 6
	.cfi_def_cfa_offset 12
	popl	%edi
	.cfi_restore 7
	.cfi_def_cfa_offset 8
	popl	%ebp
	.cfi_restore 5
	.cfi_def_cfa_offset 4
	ret
	.p2align 4,,10
	.p2align 3
.L1083:
	.cfi_restore_state
	movl	%ebx, 20(%esi)
	jmp	.L1075
	.cfi_endproc
.LFE154:
	.size	__asl_sched_nbrhs_varndx_dctrl_sel_const, .-__asl_sched_nbrhs_varndx_dctrl_sel_const
	.p2align 4,,15
	.globl	__asl_sched_nbrhs_varndx_dctrl_const_sel_t
	.type	__asl_sched_nbrhs_varndx_dctrl_const_sel_t, @function
__asl_sched_nbrhs_varndx_dctrl_const_sel_t:
.LFB155:
	.cfi_startproc
	pushl	%ebp
	.cfi_def_cfa_offset 8
	.cfi_offset 5, -8
	pushl	%edi
	.cfi_def_cfa_offset 12
	.cfi_offset 7, -12
	pushl	%esi
	.cfi_def_cfa_offset 16
	.cfi_offset 6, -16
	pushl	%ebx
	.cfi_def_cfa_offset 20
	.cfi_offset 3, -20
	call	__x86.get_pc_thunk.si
	addl	$_GLOBAL_OFFSET_TABLE_, %esi
	subl	$12, %esp
	.cfi_def_cfa_offset 32
	movl	40(%esp), %ebx
	movl	8(%ebx), %eax
	testl	%eax, %eax
	jne	.L1092
	movl	$1, 8(%ebx)
.L1086:
	movl	32(%esp), %eax
	movl	__last_nb_hp@GOT(%esi), %edi
	movl	4(%ebx), %ebp
	movl	%eax, 52(%ebx)
	movl	44(%esp), %eax
	movl	%eax, 56(%ebx)
	movl	(%edi), %eax
	testl	%eax, %eax
	je	.L1093
	movl	24(%eax), %edx
	movl	%ebx, 44(%edx)
	movl	%ebx, 24(%eax)
.L1084:
	addl	$12, %esp
	.cfi_remember_state
	.cfi_def_cfa_offset 20
	movl	%ebp, %eax
	popl	%ebx
	.cfi_restore 3
	.cfi_def_cfa_offset 16
	popl	%esi
	.cfi_restore 6
	.cfi_def_cfa_offset 12
	popl	%edi
	.cfi_restore 7
	.cfi_def_cfa_offset 8
	popl	%ebp
	.cfi_restore 5
	.cfi_def_cfa_offset 4
	ret
	.p2align 4,,10
	.p2align 3
.L1092:
	.cfi_restore_state
	movl	36(%esp), %edx
	movl	%ebx, %eax
	call	asl_loc_get_new_nbmem_event
	movl	%eax, %ebx
	jmp	.L1086
	.p2align 4,,10
	.p2align 3
.L1093:
	movl	__simtime@GOT(%esi), %eax
	movl	__time_hash@GOT(%esi), %esi
	movl	4(%eax), %edx
	movl	(%eax), %eax
	addl	36(%ebx), %eax
	adcl	40(%ebx), %edx
	movl	%eax, 24(%ebx)
	movl	%edx, %ecx
	movl	%edx, 28(%ebx)
	xorl	%eax, %ecx
	imull	$-1640531535, %ecx, %ecx
	andl	$4095, %ecx
	movl	(%esi,%ecx,4), %esi
	testl	%esi, %esi
	je	.L1094
	movl	%edx, %ecx
	movl	%eax, %edx
	movl	4(%esi), %eax
	xorl	%edx, %eax
	movl	8(%esi), %edx
	xorl	%ecx, %edx
	orl	%eax, %edx
	je	.L1095
	movl	%esi, %edx
	movl	%ebx, %eax
	call	asl_loc_nb_conflict_list
	jmp	.L1084
	.p2align 4,,10
	.p2align 3
.L1095:
	movl	%esi, (%edi)
	movl	%ebx, 24(%esi)
	movl	%ebx, 20(%esi)
	jmp	.L1084
	.p2align 4,,10
	.p2align 3
.L1094:
	movl	%ecx, %edx
	movl	%ebx, %eax
	call	asl_loc_add_new_heap_time
	movl	%eax, (%edi)
	movl	%ebx, 24(%eax)
	movl	%ebx, 20(%eax)
	movl	$0, 16(%eax)
	movl	$0, 12(%eax)
	jmp	.L1084
	.cfi_endproc
.LFE155:
	.size	__asl_sched_nbrhs_varndx_dctrl_const_sel_t, .-__asl_sched_nbrhs_varndx_dctrl_const_sel_t
	.p2align 4,,15
	.globl	__asl_sched_nb_pnd0_lhs_varndx_sel
	.type	__asl_sched_nb_pnd0_lhs_varndx_sel, @function
__asl_sched_nb_pnd0_lhs_varndx_sel:
.LFB156:
	.cfi_startproc
	pushl	%ebx
	.cfi_def_cfa_offset 8
	.cfi_offset 3, -8
	call	__x86.get_pc_thunk.bx
	addl	$_GLOBAL_OFFSET_TABLE_, %ebx
	subl	$8, %esp
	.cfi_def_cfa_offset 16
	movl	24(%esp), %eax
	movl	8(%eax), %edx
	testl	%edx, %edx
	jne	.L1100
	movl	$1, 8(%eax)
.L1098:
	movl	__simtime@GOT(%ebx), %edx
	movl	4(%edx), %ecx
	movl	(%edx), %edx
	movl	%edx, 24(%eax)
	movl	16(%esp), %edx
	movl	%ecx, 28(%eax)
	movl	%edx, 52(%eax)
	movl	28(%esp), %edx
	movl	%edx, 56(%eax)
	movl	__nb_te_endp@GOT(%ebx), %edx
	movl	(%edx), %ecx
	movl	%eax, (%edx)
	movl	%eax, 44(%ecx)
	movl	4(%eax), %eax
	addl	$8, %esp
	.cfi_remember_state
	.cfi_def_cfa_offset 8
	popl	%ebx
	.cfi_restore 3
	.cfi_def_cfa_offset 4
	ret
	.p2align 4,,10
	.p2align 3
.L1100:
	.cfi_restore_state
	movl	20(%esp), %edx
	call	asl_loc_get_new_nbmem_event
	jmp	.L1098
	.cfi_endproc
.LFE156:
	.size	__asl_sched_nb_pnd0_lhs_varndx_sel, .-__asl_sched_nb_pnd0_lhs_varndx_sel
	.p2align 4,,15
	.globl	__asl_sched_nbrhs_varndx_dctrl_concat
	.type	__asl_sched_nbrhs_varndx_dctrl_concat, @function
__asl_sched_nbrhs_varndx_dctrl_concat:
.LFB157:
	.cfi_startproc
	pushl	%ebp
	.cfi_def_cfa_offset 8
	.cfi_offset 5, -8
	pushl	%edi
	.cfi_def_cfa_offset 12
	.cfi_offset 7, -12
	pushl	%esi
	.cfi_def_cfa_offset 16
	.cfi_offset 6, -16
	pushl	%ebx
	.cfi_def_cfa_offset 20
	.cfi_offset 3, -20
	call	__x86.get_pc_thunk.bx
	addl	$_GLOBAL_OFFSET_TABLE_, %ebx
	subl	$28, %esp
	.cfi_def_cfa_offset 48
	movl	64(%esp), %ebp
	movl	8(%ebp), %edx
	testl	%edx, %edx
	jne	.L1115
	movl	$1, 8(%ebp)
.L1103:
	movl	48(%esp), %eax
	subl	$8, %esp
	.cfi_def_cfa_offset 56
	movl	16(%eax), %edx
	movl	(%edx), %eax
	shrl	$13, %eax
	andl	$31, %eax
	pushl	%eax
	.cfi_def_cfa_offset 60
	pushl	8(%edx)
	.cfi_def_cfa_offset 64
	call	__get_del@PLT
	movl	%eax, %esi
	movl	__simtime@GOT(%ebx), %eax
	movl	%edx, %edi
	movl	%esi, %edx
	movl	%edi, %ecx
	addl	(%eax), %edx
	adcl	4(%eax), %ecx
	movl	%edx, %eax
	movl	%ecx, 28(%ebp)
	movl	%eax, 24(%ebp)
	movl	$32, (%esp)
	call	__my_malloc@PLT
	movl	%eax, 24(%esp)
	movl	%eax, 4(%ebp)
	popl	%eax
	.cfi_def_cfa_offset 60
	pushl	72(%esp)
	.cfi_def_cfa_offset 64
	call	__my_malloc@PLT
	movl	24(%esp), %edx
	movl	%eax, %ecx
	movl	%eax, (%edx)
	movl	76(%esp), %eax
	movl	%eax, 4(%edx)
	movl	68(%esp), %eax
	movl	%eax, 16(%edx)
	movl	84(%esp), %eax
	movl	%eax, 28(%edx)
	movl	72(%esp), %eax
	addl	$16, %esp
	.cfi_def_cfa_offset 48
	movl	%eax, 8(%edx)
	movl	%edi, %edx
	orl	%esi, %edx
	jne	.L1104
	movl	__nb_te_endp@GOT(%ebx), %eax
	movl	(%eax), %edx
	movl	%ebp, (%eax)
	movl	%ebp, 44(%edx)
.L1101:
	addl	$28, %esp
	.cfi_remember_state
	.cfi_def_cfa_offset 20
	movl	%ecx, %eax
	popl	%ebx
	.cfi_restore 3
	.cfi_def_cfa_offset 16
	popl	%esi
	.cfi_restore 6
	.cfi_def_cfa_offset 12
	popl	%edi
	.cfi_restore 7
	.cfi_def_cfa_offset 8
	popl	%ebp
	.cfi_restore 5
	.cfi_def_cfa_offset 4
	ret
	.p2align 4,,10
	.p2align 3
.L1104:
	.cfi_restore_state
	movl	__last_nb_hp@GOT(%ebx), %esi
	movl	24(%ebp), %eax
	movl	28(%ebp), %edi
	movl	(%esi), %edx
	movl	%esi, 12(%esp)
	movl	4(%edx), %esi
	xorl	%eax, %esi
	movl	%esi, 8(%esp)
	movl	8(%edx), %esi
	xorl	%edi, %esi
	orl	8(%esp), %esi
	je	.L1114
	movl	%edi, %esi
	movl	__time_hash@GOT(%ebx), %edx
	xorl	%eax, %esi
	imull	$-1640531535, %esi, %esi
	andl	$4095, %esi
	movl	(%edx,%esi,4), %edx
	testl	%edx, %edx
	je	.L1116
	xorl	8(%edx), %edi
	xorl	4(%edx), %eax
	movl	%edi, %ebx
	orl	%eax, %ebx
	jne	.L1109
	movl	12(%esp), %eax
	movl	%edx, (%eax)
.L1114:
	movl	24(%edx), %eax
	movl	%ebp, 24(%edx)
	testl	%eax, %eax
	je	.L1117
	movl	%ebp, 44(%eax)
	addl	$28, %esp
	.cfi_remember_state
	.cfi_def_cfa_offset 20
	movl	%ecx, %eax
	popl	%ebx
	.cfi_restore 3
	.cfi_def_cfa_offset 16
	popl	%esi
	.cfi_restore 6
	.cfi_def_cfa_offset 12
	popl	%edi
	.cfi_restore 7
	.cfi_def_cfa_offset 8
	popl	%ebp
	.cfi_restore 5
	.cfi_def_cfa_offset 4
	ret
	.p2align 4,,10
	.p2align 3
.L1115:
	.cfi_restore_state
	movl	%ebp, %eax
	call	asl_loc_get_new_event
	movl	%eax, %ebp
	jmp	.L1103
	.p2align 4,,10
	.p2align 3
.L1109:
	movl	%ebp, %eax
	movl	%ecx, 8(%esp)
	call	asl_loc_nb_conflict_list
	movl	8(%esp), %ecx
	addl	$28, %esp
	.cfi_remember_state
	.cfi_def_cfa_offset 20
	popl	%ebx
	.cfi_restore 3
	.cfi_def_cfa_offset 16
	popl	%esi
	.cfi_restore 6
	.cfi_def_cfa_offset 12
	movl	%ecx, %eax
	popl	%edi
	.cfi_restore 7
	.cfi_def_cfa_offset 8
	popl	%ebp
	.cfi_restore 5
	.cfi_def_cfa_offset 4
	ret
	.p2align 4,,10
	.p2align 3
.L1117:
	.cfi_restore_state
	movl	%ebp, 20(%edx)
	jmp	.L1101
	.p2align 4,,10
	.p2align 3
.L1116:
	movl	%esi, %edx
	movl	%ebp, %eax
	movl	%ecx, 8(%esp)
	call	asl_loc_add_new_heap_time
	movl	12(%esp), %edi
	movl	%ebp, 24(%eax)
	movl	%ebp, 20(%eax)
	movl	$0, 16(%eax)
	movl	$0, 12(%eax)
	movl	8(%esp), %ecx
	movl	%eax, (%edi)
	jmp	.L1101
	.cfi_endproc
.LFE157:
	.size	__asl_sched_nbrhs_varndx_dctrl_concat, .-__asl_sched_nbrhs_varndx_dctrl_concat
	.p2align 4,,15
	.globl	__asl_sched_nbrhs_varndx_dctrl_const_concat
	.type	__asl_sched_nbrhs_varndx_dctrl_const_concat, @function
__asl_sched_nbrhs_varndx_dctrl_const_concat:
.LFB158:
	.cfi_startproc
	pushl	%ebp
	.cfi_def_cfa_offset 8
	.cfi_offset 5, -8
	pushl	%edi
	.cfi_def_cfa_offset 12
	.cfi_offset 7, -12
	pushl	%esi
	.cfi_def_cfa_offset 16
	.cfi_offset 6, -16
	pushl	%ebx
	.cfi_def_cfa_offset 20
	.cfi_offset 3, -20
	call	__x86.get_pc_thunk.bx
	addl	$_GLOBAL_OFFSET_TABLE_, %ebx
	subl	$28, %esp
	.cfi_def_cfa_offset 48
	movl	60(%esp), %esi
	movl	56(%esp), %edi
	movl	8(%esi), %eax
	testl	%eax, %eax
	jne	.L1131
	movl	$1, 8(%esi)
.L1120:
	movl	__simtime@GOT(%ebx), %eax
	movl	4(%eax), %edx
	movl	(%eax), %eax
	addl	36(%esi), %eax
	adcl	40(%esi), %edx
	subl	$12, %esp
	.cfi_def_cfa_offset 60
	movl	%eax, 24(%esi)
	movl	%edx, 28(%esi)
	pushl	$32
	.cfi_def_cfa_offset 64
	call	__my_malloc@PLT
	movl	%eax, %ebp
	movl	%eax, 4(%esi)
	movl	%edi, (%esp)
	call	__my_malloc@PLT
	movl	%eax, 24(%esp)
	movl	%eax, 0(%ebp)
	movl	64(%esp), %eax
	movl	__last_nb_hp@GOT(%ebx), %edx
	movl	%edi, 4(%ebp)
	movl	28(%esi), %ecx
	movl	%eax, 16(%ebp)
	movl	68(%esp), %eax
	movl	%edx, 28(%esp)
	movl	(%edx), %edx
	movl	%eax, 8(%ebp)
	movl	80(%esp), %eax
	addl	$16, %esp
	.cfi_def_cfa_offset 48
	movl	4(%edx), %edi
	movl	%eax, 28(%ebp)
	movl	24(%esi), %eax
	movl	8(%edx), %ebp
	xorl	%eax, %edi
	xorl	%ecx, %ebp
	orl	%edi, %ebp
	je	.L1130
	movl	%ecx, %edi
	movl	__time_hash@GOT(%ebx), %edx
	xorl	%eax, %edi
	imull	$-1640531535, %edi, %edi
	andl	$4095, %edi
	movl	(%edx,%edi,4), %edx
	testl	%edx, %edx
	je	.L1132
	xorl	4(%edx), %eax
	xorl	8(%edx), %ecx
	orl	%eax, %ecx
	jne	.L1125
	movl	12(%esp), %eax
	movl	%edx, (%eax)
.L1130:
	movl	24(%edx), %eax
	movl	%esi, 24(%edx)
	testl	%eax, %eax
	je	.L1133
	movl	%esi, 44(%eax)
	movl	8(%esp), %eax
	addl	$28, %esp
	.cfi_remember_state
	.cfi_def_cfa_offset 20
	popl	%ebx
	.cfi_restore 3
	.cfi_def_cfa_offset 16
	popl	%esi
	.cfi_restore 6
	.cfi_def_cfa_offset 12
	popl	%edi
	.cfi_restore 7
	.cfi_def_cfa_offset 8
	popl	%ebp
	.cfi_restore 5
	.cfi_def_cfa_offset 4
	ret
	.p2align 4,,10
	.p2align 3
.L1125:
	.cfi_restore_state
	movl	%esi, %eax
	call	asl_loc_nb_conflict_list
	movl	8(%esp), %eax
	addl	$28, %esp
	.cfi_remember_state
	.cfi_def_cfa_offset 20
	popl	%ebx
	.cfi_restore 3
	.cfi_def_cfa_offset 16
	popl	%esi
	.cfi_restore 6
	.cfi_def_cfa_offset 12
	popl	%edi
	.cfi_restore 7
	.cfi_def_cfa_offset 8
	popl	%ebp
	.cfi_restore 5
	.cfi_def_cfa_offset 4
	ret
	.p2align 4,,10
	.p2align 3
.L1131:
	.cfi_restore_state
	movl	%esi, %eax
	call	asl_loc_get_new_event
	movl	%eax, %esi
	jmp	.L1120
	.p2align 4,,10
	.p2align 3
.L1133:
	movl	%esi, 20(%edx)
	movl	8(%esp), %eax
	addl	$28, %esp
	.cfi_remember_state
	.cfi_def_cfa_offset 20
	popl	%ebx
	.cfi_restore 3
	.cfi_def_cfa_offset 16
	popl	%esi
	.cfi_restore 6
	.cfi_def_cfa_offset 12
	popl	%edi
	.cfi_restore 7
	.cfi_def_cfa_offset 8
	popl	%ebp
	.cfi_restore 5
	.cfi_def_cfa_offset 4
	ret
	.p2align 4,,10
	.p2align 3
.L1132:
	.cfi_restore_state
	movl	%edi, %edx
	movl	%esi, %eax
	call	asl_loc_add_new_heap_time
	movl	12(%esp), %ecx
	movl	%esi, 24(%eax)
	movl	%esi, 20(%eax)
	movl	$0, 16(%eax)
	movl	$0, 12(%eax)
	movl	%eax, (%ecx)
	movl	8(%esp), %eax
	addl	$28, %esp
	.cfi_def_cfa_offset 20
	popl	%ebx
	.cfi_restore 3
	.cfi_def_cfa_offset 16
	popl	%esi
	.cfi_restore 6
	.cfi_def_cfa_offset 12
	popl	%edi
	.cfi_restore 7
	.cfi_def_cfa_offset 8
	popl	%ebp
	.cfi_restore 5
	.cfi_def_cfa_offset 4
	ret
	.cfi_endproc
.LFE158:
	.size	__asl_sched_nbrhs_varndx_dctrl_const_concat, .-__asl_sched_nbrhs_varndx_dctrl_const_concat
	.p2align 4,,15
	.globl	__asl_sched_nbrhs_varndx_dctrl_const_concat_t
	.type	__asl_sched_nbrhs_varndx_dctrl_const_concat_t, @function
__asl_sched_nbrhs_varndx_dctrl_const_concat_t:
.LFB159:
	.cfi_startproc
	pushl	%ebp
	.cfi_def_cfa_offset 8
	.cfi_offset 5, -8
	pushl	%edi
	.cfi_def_cfa_offset 12
	.cfi_offset 7, -12
	pushl	%esi
	.cfi_def_cfa_offset 16
	.cfi_offset 6, -16
	pushl	%ebx
	.cfi_def_cfa_offset 20
	.cfi_offset 3, -20
	call	__x86.get_pc_thunk.bx
	addl	$_GLOBAL_OFFSET_TABLE_, %ebx
	subl	$12, %esp
	.cfi_def_cfa_offset 32
	movl	44(%esp), %esi
	movl	8(%esi), %edx
	testl	%edx, %edx
	jne	.L1142
	movl	$1, 8(%esi)
.L1136:
	subl	$12, %esp
	.cfi_def_cfa_offset 44
	pushl	$32
	.cfi_def_cfa_offset 48
	call	__my_malloc@PLT
	movl	%eax, %ebp
	movl	%eax, 4(%esi)
	popl	%eax
	.cfi_def_cfa_offset 44
	pushl	52(%esp)
	.cfi_def_cfa_offset 48
	call	__my_malloc@PLT
	movl	%eax, 0(%ebp)
	movl	%eax, %edi
	movl	56(%esp), %eax
	movl	%eax, 4(%ebp)
	movl	48(%esp), %eax
	movl	%eax, 16(%ebp)
	movl	52(%esp), %eax
	movl	%eax, 8(%ebp)
	movl	64(%esp), %eax
	addl	$16, %esp
	.cfi_def_cfa_offset 32
	movl	%eax, 28(%ebp)
	movl	__last_nb_hp@GOT(%ebx), %ebp
	movl	0(%ebp), %eax
	testl	%eax, %eax
	je	.L1143
	movl	24(%eax), %edx
	movl	%esi, 44(%edx)
	movl	%esi, 24(%eax)
.L1134:
	addl	$12, %esp
	.cfi_remember_state
	.cfi_def_cfa_offset 20
	movl	%edi, %eax
	popl	%ebx
	.cfi_restore 3
	.cfi_def_cfa_offset 16
	popl	%esi
	.cfi_restore 6
	.cfi_def_cfa_offset 12
	popl	%edi
	.cfi_restore 7
	.cfi_def_cfa_offset 8
	popl	%ebp
	.cfi_restore 5
	.cfi_def_cfa_offset 4
	ret
	.p2align 4,,10
	.p2align 3
.L1142:
	.cfi_restore_state
	movl	%esi, %eax
	call	asl_loc_get_new_event
	movl	%eax, %esi
	jmp	.L1136
	.p2align 4,,10
	.p2align 3
.L1143:
	movl	__simtime@GOT(%ebx), %eax
	movl	__time_hash@GOT(%ebx), %ebx
	movl	4(%eax), %edx
	movl	(%eax), %eax
	addl	36(%esi), %eax
	adcl	40(%esi), %edx
	movl	%eax, 24(%esi)
	movl	%edx, %ecx
	movl	%edx, 28(%esi)
	xorl	%eax, %ecx
	imull	$-1640531535, %ecx, %ecx
	andl	$4095, %ecx
	movl	(%ebx,%ecx,4), %ebx
	testl	%ebx, %ebx
	je	.L1144
	movl	%edx, %ecx
	movl	%eax, %edx
	movl	4(%ebx), %eax
	xorl	%edx, %eax
	movl	8(%ebx), %edx
	xorl	%ecx, %edx
	orl	%eax, %edx
	je	.L1145
	movl	%ebx, %edx
	movl	%esi, %eax
	call	asl_loc_nb_conflict_list
	jmp	.L1134
	.p2align 4,,10
	.p2align 3
.L1145:
	movl	%ebx, 0(%ebp)
	movl	%esi, 24(%ebx)
	movl	%esi, 20(%ebx)
	jmp	.L1134
	.p2align 4,,10
	.p2align 3
.L1144:
	movl	%ecx, %edx
	movl	%esi, %eax
	call	asl_loc_add_new_heap_time
	movl	%eax, 0(%ebp)
	movl	%esi, 24(%eax)
	movl	%esi, 20(%eax)
	movl	$0, 16(%eax)
	movl	$0, 12(%eax)
	jmp	.L1134
	.cfi_endproc
.LFE159:
	.size	__asl_sched_nbrhs_varndx_dctrl_const_concat_t, .-__asl_sched_nbrhs_varndx_dctrl_const_concat_t
	.p2align 4,,15
	.globl	__asl_sched_nb_pnd0_lhs_varndx_concat
	.type	__asl_sched_nb_pnd0_lhs_varndx_concat, @function
__asl_sched_nb_pnd0_lhs_varndx_concat:
.LFB160:
	.cfi_startproc
	pushl	%ebp
	.cfi_def_cfa_offset 8
	.cfi_offset 5, -8
	pushl	%edi
	.cfi_def_cfa_offset 12
	.cfi_offset 7, -12
	pushl	%esi
	.cfi_def_cfa_offset 16
	.cfi_offset 6, -16
	pushl	%ebx
	.cfi_def_cfa_offset 20
	.cfi_offset 3, -20
	call	__x86.get_pc_thunk.bx
	addl	$_GLOBAL_OFFSET_TABLE_, %ebx
	subl	$12, %esp
	.cfi_def_cfa_offset 32
	movl	44(%esp), %edi
	movl	40(%esp), %esi
	movl	8(%edi), %eax
	testl	%eax, %eax
	jne	.L1150
	movl	$1, 8(%edi)
.L1148:
	movl	__simtime@GOT(%ebx), %eax
	subl	$12, %esp
	.cfi_def_cfa_offset 44
	movl	4(%eax), %edx
	movl	(%eax), %eax
	movl	%edx, 28(%edi)
	movl	%eax, 24(%edi)
	pushl	$32
	.cfi_def_cfa_offset 48
	call	__my_malloc@PLT
	movl	%eax, 4(%edi)
	movl	%eax, %ebp
	movl	%esi, (%esp)
	call	__my_malloc@PLT
	movl	48(%esp), %edx
	movl	%eax, 0(%ebp)
	movl	%esi, 4(%ebp)
	movl	%edx, 16(%ebp)
	movl	64(%esp), %edx
	movl	%edx, 28(%ebp)
	movl	52(%esp), %edx
	movl	%edx, 8(%ebp)
	movl	__nb_te_endp@GOT(%ebx), %edx
	movl	(%edx), %ecx
	movl	%edi, (%edx)
	movl	%edi, 44(%ecx)
	addl	$28, %esp
	.cfi_def_cfa_offset 20
	popl	%ebx
	.cfi_restore 3
	.cfi_def_cfa_offset 16
	popl	%esi
	.cfi_restore 6
	.cfi_def_cfa_offset 12
	popl	%edi
	.cfi_restore 7
	.cfi_def_cfa_offset 8
	popl	%ebp
	.cfi_restore 5
	.cfi_def_cfa_offset 4
	ret
	.p2align 4,,10
	.p2align 3
.L1150:
	.cfi_def_cfa_offset 32
	.cfi_offset 3, -20
	.cfi_offset 5, -8
	.cfi_offset 6, -16
	.cfi_offset 7, -12
	movl	%edi, %eax
	call	asl_loc_get_new_event
	movl	%eax, %edi
	jmp	.L1148
	.cfi_endproc
.LFE160:
	.size	__asl_sched_nb_pnd0_lhs_varndx_concat, .-__asl_sched_nb_pnd0_lhs_varndx_concat
	.p2align 4,,15
	.globl	__asl_arm_nb_ectrl
	.type	__asl_arm_nb_ectrl, @function
__asl_arm_nb_ectrl:
.LFB161:
	.cfi_startproc
	movl	8(%esp), %eax
	call	__x86.get_pc_thunk.dx
	addl	$_GLOBAL_OFFSET_TABLE_, %edx
	movl	8(%eax), %ecx
	testl	%ecx, %ecx
	jne	.L1156
	movl	4(%esp), %ecx
	movl	__idp@GOT(%edx), %edx
	orb	$2, (%eax)
	movl	$1, 8(%eax)
	movl	16(%ecx), %ecx
	movl	(%edx), %edx
	movl	16(%ecx), %ecx
	leal	(%edx,%ecx,4), %ecx
	movl	(%ecx), %edx
	testl	%edx, %edx
	jne	.L1155
	movl	%eax, (%ecx)
.L1156:
	movl	4(%eax), %eax
	ret
	.p2align 4,,10
	.p2align 3
.L1157:
	movl	%ecx, %edx
.L1155:
	movl	44(%edx), %ecx
	testl	%ecx, %ecx
	jne	.L1157
	movl	%eax, 44(%edx)
	movl	%edx, 48(%eax)
	movl	$0, 44(%eax)
	movl	4(%eax), %eax
	ret
	.cfi_endproc
.LFE161:
	.size	__asl_arm_nb_ectrl, .-__asl_arm_nb_ectrl
	.p2align 4,,15
	.globl	__asl_arm_nb_varndx_ectrl
	.type	__asl_arm_nb_varndx_ectrl, @function
__asl_arm_nb_varndx_ectrl:
.LFB162:
	.cfi_startproc
	call	__x86.get_pc_thunk.dx
	addl	$_GLOBAL_OFFSET_TABLE_, %edx
	pushl	%ebx
	.cfi_def_cfa_offset 8
	.cfi_offset 3, -8
	movl	12(%esp), %eax
	movl	__simtime@GOT(%edx), %ecx
	movl	4(%ecx), %ebx
	movl	(%ecx), %ecx
	movl	%ecx, 24(%eax)
	movl	16(%esp), %ecx
	movl	%ebx, 28(%eax)
	movl	%ecx, 52(%eax)
	movl	8(%eax), %ecx
	testl	%ecx, %ecx
	jne	.L1163
	movl	8(%esp), %ecx
	movl	__idp@GOT(%edx), %edx
	movl	$1, 8(%eax)
	movl	16(%ecx), %ecx
	movl	(%edx), %edx
	movl	16(%ecx), %ecx
	leal	(%edx,%ecx,4), %ecx
	movl	(%ecx), %edx
	testl	%edx, %edx
	jne	.L1162
	movl	%eax, (%ecx)
.L1163:
	movl	4(%eax), %eax
	popl	%ebx
	.cfi_remember_state
	.cfi_restore 3
	.cfi_def_cfa_offset 4
	ret
	.p2align 4,,10
	.p2align 3
.L1164:
	.cfi_restore_state
	movl	%ecx, %edx
.L1162:
	movl	44(%edx), %ecx
	testl	%ecx, %ecx
	jne	.L1164
	movl	%eax, 44(%edx)
	movl	%edx, 48(%eax)
	movl	$0, 44(%eax)
	movl	4(%eax), %eax
	popl	%ebx
	.cfi_restore 3
	.cfi_def_cfa_offset 4
	ret
	.cfi_endproc
.LFE162:
	.size	__asl_arm_nb_varndx_ectrl, .-__asl_arm_nb_varndx_ectrl
	.p2align 4,,15
	.globl	__asl_loc_get_new_thread_event
	.type	__asl_loc_get_new_thread_event, @function
__asl_loc_get_new_thread_event:
.LFB167:
	.cfi_startproc
	jmp	asl_loc_get_new_thread_event
	.cfi_endproc
.LFE167:
	.size	__asl_loc_get_new_thread_event, .-__asl_loc_get_new_thread_event
	.p2align 4,,15
	.globl	__asl_loc_get_new_event
	.type	__asl_loc_get_new_event, @function
__asl_loc_get_new_event:
.LFB168:
	.cfi_startproc
	movl	4(%esp), %eax
	jmp	asl_loc_get_new_event
	.cfi_endproc
.LFE168:
	.size	__asl_loc_get_new_event, .-__asl_loc_get_new_event
	.p2align 4,,15
	.globl	__asl_sched_namblk_thd
	.type	__asl_sched_namblk_thd, @function
__asl_sched_namblk_thd:
.LFB169:
	.cfi_startproc
	pushl	%edi
	.cfi_def_cfa_offset 8
	.cfi_offset 7, -8
	pushl	%esi
	.cfi_def_cfa_offset 12
	.cfi_offset 6, -12
	pushl	%ebx
	.cfi_def_cfa_offset 16
	.cfi_offset 3, -16
	movl	16(%esp), %edi
	call	__x86.get_pc_thunk.bx
	addl	$_GLOBAL_OFFSET_TABLE_, %ebx
	subl	$12, %esp
	.cfi_def_cfa_offset 28
	movl	__cur_thd@GOT(%ebx), %esi
	movl	16(%edi), %ecx
	movl	(%esi), %edx
	movl	(%edx), %eax
	andl	$-1073741761, %eax
	orl	$64, %eax
	movl	%eax, (%edx)
	movl	36(%edi), %eax
	movl	12(%edx), %edi
	movl	%eax, 20(%edx)
	pushl	%ecx
	.cfi_def_cfa_offset 32
	call	__setup_tsk_thread@PLT
	movl	(%esi), %edx
	addl	$16, %esp
	.cfi_def_cfa_offset 16
	movl	%eax, (%esi)
	movl	%edx, 24(%eax)
	movl	%eax, 36(%edx)
	movl	__idp@GOT(%ebx), %edx
	movl	%edi, 12(%eax)
	movl	(%edx), %edx
	movl	%edx, 60(%eax)
	popl	%ebx
	.cfi_restore 3
	.cfi_def_cfa_offset 12
	popl	%esi
	.cfi_restore 6
	.cfi_def_cfa_offset 8
	popl	%edi
	.cfi_restore 7
	.cfi_def_cfa_offset 4
	ret
	.cfi_endproc
.LFE169:
	.size	__asl_sched_namblk_thd, .-__asl_sched_namblk_thd
	.p2align 4,,15
	.globl	__asl_exec_stsk
	.type	__asl_exec_stsk, @function
__asl_exec_stsk:
.LFB172:
	.cfi_startproc
	pushl	%ebp
	.cfi_def_cfa_offset 8
	.cfi_offset 5, -8
	pushl	%edi
	.cfi_def_cfa_offset 12
	.cfi_offset 7, -12
	pushl	%esi
	.cfi_def_cfa_offset 16
	.cfi_offset 6, -16
	pushl	%ebx
	.cfi_def_cfa_offset 20
	.cfi_offset 3, -20
	call	__x86.get_pc_thunk.bx
	addl	$_GLOBAL_OFFSET_TABLE_, %ebx
	subl	$32, %esp
	.cfi_def_cfa_offset 52
	movl	52(%esp), %eax
	movl	__slin_cnt@GOT(%ebx), %edi
	movl	__sfnam_ind@GOT(%ebx), %esi
	movl	8(%eax), %ecx
	movl	(%edi), %edx
	movl	(%esi), %ebp
	movl	%ecx, (%edi)
	movzwl	4(%eax), %ecx
	movl	%edx, 16(%esp)
	movl	16(%eax), %edx
	movl	%ecx, (%esi)
	leal	16(%eax), %ecx
	pushl	%ecx
	.cfi_def_cfa_offset 56
	pushl	12(%edx)
	.cfi_def_cfa_offset 60
	pushl	%eax
	.cfi_def_cfa_offset 64
	call	__exec_stsk@PLT
	movl	28(%esp), %edx
	movl	%ebp, (%esi)
	movl	%edx, (%edi)
	addl	$44, %esp
	.cfi_def_cfa_offset 20
	popl	%ebx
	.cfi_restore 3
	.cfi_def_cfa_offset 16
	popl	%esi
	.cfi_restore 6
	.cfi_def_cfa_offset 12
	popl	%edi
	.cfi_restore 7
	.cfi_def_cfa_offset 8
	popl	%ebp
	.cfi_restore 5
	.cfi_def_cfa_offset 4
	ret
	.cfi_endproc
.LFE172:
	.size	__asl_exec_stsk, .-__asl_exec_stsk
	.p2align 4,,15
	.globl	__asl_new_auto_idp_area
	.type	__asl_new_auto_idp_area, @function
__asl_new_auto_idp_area:
.LFB173:
	.cfi_startproc
	pushl	%ebp
	.cfi_def_cfa_offset 8
	.cfi_offset 5, -8
	pushl	%edi
	.cfi_def_cfa_offset 12
	.cfi_offset 7, -12
	pushl	%esi
	.cfi_def_cfa_offset 16
	.cfi_offset 6, -16
	pushl	%ebx
	.cfi_def_cfa_offset 20
	.cfi_offset 3, -20
	call	__x86.get_pc_thunk.bx
	addl	$_GLOBAL_OFFSET_TABLE_, %ebx
	subl	$24, %esp
	.cfi_def_cfa_offset 44
	movl	44(%esp), %ebp
	movl	4(%ebp), %eax
	movl	264(%eax), %esi
	sall	$2, %esi
	pushl	%esi
	.cfi_def_cfa_offset 48
	call	__my_malloc@PLT
	addl	$12, %esp
	.cfi_def_cfa_offset 36
	movl	%eax, %edi
	pushl	%esi
	.cfi_def_cfa_offset 40
	pushl	%ebp
	.cfi_def_cfa_offset 44
	pushl	%eax
	.cfi_def_cfa_offset 48
	call	memcpy@PLT
	addl	$28, %esp
	.cfi_def_cfa_offset 20
	movl	%edi, %eax
	popl	%ebx
	.cfi_restore 3
	.cfi_def_cfa_offset 16
	popl	%esi
	.cfi_restore 6
	.cfi_def_cfa_offset 12
	popl	%edi
	.cfi_restore 7
	.cfi_def_cfa_offset 8
	popl	%ebp
	.cfi_restore 5
	.cfi_def_cfa_offset 4
	ret
	.cfi_endproc
.LFE173:
	.size	__asl_new_auto_idp_area, .-__asl_new_auto_idp_area
	.p2align 4,,15
	.globl	__asl_cp_auto_idp_area_func
	.type	__asl_cp_auto_idp_area_func, @function
__asl_cp_auto_idp_area_func:
.LFB174:
	.cfi_startproc
	pushl	%edi
	.cfi_def_cfa_offset 8
	.cfi_offset 7, -8
	pushl	%esi
	.cfi_def_cfa_offset 12
	.cfi_offset 6, -12
	pushl	%ebx
	.cfi_def_cfa_offset 16
	.cfi_offset 3, -16
	movl	20(%esp), %esi
	call	__x86.get_pc_thunk.bx
	addl	$_GLOBAL_OFFSET_TABLE_, %ebx
	subl	$4, %esp
	.cfi_def_cfa_offset 20
	movl	4(%esi), %edi
	movl	272(%edi), %eax
	sall	$2, %eax
	pushl	%eax
	.cfi_def_cfa_offset 24
	pushl	%esi
	.cfi_def_cfa_offset 28
	pushl	28(%esp)
	.cfi_def_cfa_offset 32
	call	memcpy@PLT
	popl	%eax
	.cfi_def_cfa_offset 28
	popl	%edx
	.cfi_def_cfa_offset 24
	pushl	264(%edi)
	.cfi_def_cfa_offset 28
	pushl	%esi
	.cfi_def_cfa_offset 32
	call	__my_free@PLT
	addl	$16, %esp
	.cfi_def_cfa_offset 16
	popl	%ebx
	.cfi_restore 3
	.cfi_def_cfa_offset 12
	popl	%esi
	.cfi_restore 6
	.cfi_def_cfa_offset 8
	popl	%edi
	.cfi_restore 7
	.cfi_def_cfa_offset 4
	ret
	.cfi_endproc
.LFE174:
	.size	__asl_cp_auto_idp_area_func, .-__asl_cp_auto_idp_area_func
	.section	.rodata.str1.1
.LC14:
	.string	"\n"
	.text
	.p2align 4,,15
	.globl	__asl_exec_display
	.type	__asl_exec_display, @function
__asl_exec_display:
.LFB175:
	.cfi_startproc
	pushl	%ebx
	.cfi_def_cfa_offset 8
	.cfi_offset 3, -8
	call	__x86.get_pc_thunk.bx
	addl	$_GLOBAL_OFFSET_TABLE_, %ebx
	subl	$16, %esp
	.cfi_def_cfa_offset 24
	pushl	$3
	.cfi_def_cfa_offset 28
	movl	28(%esp), %eax
	pushl	20(%eax)
	.cfi_def_cfa_offset 32
	call	__do_disp@PLT
	leal	.LC14@GOTOFF(%ebx), %eax
	movl	%eax, (%esp)
	call	__cvsim_msg@PLT
	addl	$24, %esp
	.cfi_def_cfa_offset 8
	popl	%ebx
	.cfi_restore 3
	.cfi_def_cfa_offset 4
	ret
	.cfi_endproc
.LFE175:
	.size	__asl_exec_display, .-__asl_exec_display
	.p2align 4,,15
	.globl	__asl_reg_qcaf_inhibit
	.type	__asl_reg_qcaf_inhibit, @function
__asl_reg_qcaf_inhibit:
.LFB176:
	.cfi_startproc
	call	__x86.get_pc_thunk.ax
	addl	$_GLOBAL_OFFSET_TABLE_, %eax
	movl	4(%esp), %edx
	movl	__idp@GOT(%eax), %eax
	movl	68(%edx), %ecx
	movl	(%eax), %eax
	movl	(%eax), %eax
	leal	(%eax,%eax,2), %edx
	xorl	%eax, %eax
	sall	$4, %edx
	testb	$1, (%ecx,%edx)
	jne	.L1178
	movzbl	24(%ecx,%edx), %eax
	notl	%eax
	andl	$1, %eax
.L1178:
	rep ret
	.cfi_endproc
.LFE176:
	.size	__asl_reg_qcaf_inhibit, .-__asl_reg_qcaf_inhibit
	.p2align 4,,15
	.globl	__asl_scalar_wire_inhibit
	.type	__asl_scalar_wire_inhibit, @function
__asl_scalar_wire_inhibit:
.LFB177:
	.cfi_startproc
	call	__x86.get_pc_thunk.ax
	addl	$_GLOBAL_OFFSET_TABLE_, %eax
	movl	4(%esp), %edx
	movl	__idp@GOT(%eax), %eax
	movl	(%eax), %eax
	movl	(%eax), %eax
	leal	(%eax,%eax,2), %eax
	sall	$3, %eax
	addl	68(%edx), %eax
	movzbl	(%eax), %eax
	notl	%eax
	andl	$1, %eax
	ret
	.cfi_endproc
.LFE177:
	.size	__asl_scalar_wire_inhibit, .-__asl_scalar_wire_inhibit
	.p2align 4,,15
	.globl	__asl_bsel_wirfrc_inhibit
	.type	__asl_bsel_wirfrc_inhibit, @function
__asl_bsel_wirfrc_inhibit:
.LFB178:
	.cfi_startproc
	call	__x86.get_pc_thunk.ax
	addl	$_GLOBAL_OFFSET_TABLE_, %eax
	movl	4(%esp), %edx
	movl	__idp@GOT(%eax), %eax
	movl	68(%edx), %ecx
	movl	(%eax), %eax
	movl	(%eax), %eax
	imull	8(%edx), %eax
	addl	8(%esp), %eax
	leal	(%eax,%eax,2), %eax
	leal	(%ecx,%eax,8), %eax
	movzbl	(%eax), %eax
	notl	%eax
	andl	$1, %eax
	ret
	.cfi_endproc
.LFE178:
	.size	__asl_bsel_wirfrc_inhibit, .-__asl_bsel_wirfrc_inhibit
	.p2align 4,,15
	.globl	__asl_stren_correct_frc
	.type	__asl_stren_correct_frc, @function
__asl_stren_correct_frc:
.LFB179:
	.cfi_startproc
	pushl	%ebp
	.cfi_def_cfa_offset 8
	.cfi_offset 5, -8
	pushl	%edi
	.cfi_def_cfa_offset 12
	.cfi_offset 7, -12
	call	__x86.get_pc_thunk.ax
	addl	$_GLOBAL_OFFSET_TABLE_, %eax
	pushl	%esi
	.cfi_def_cfa_offset 16
	.cfi_offset 6, -16
	pushl	%ebx
	.cfi_def_cfa_offset 20
	.cfi_offset 3, -20
	subl	$4, %esp
	.cfi_def_cfa_offset 24
	movl	__idp@GOT(%eax), %eax
	movl	28(%esp), %ebx
	movl	24(%esp), %edi
	movl	(%eax), %ebp
	movl	24(%ebx), %esi
	movl	8(%ebx), %eax
	movl	0(%ebp), %edx
	sall	$2, %esi
	imull	%eax, %edx
	testl	%eax, %eax
	jle	.L1187
	leal	(%edx,%edx,2), %ecx
	movl	$0, (%esp)
	xorl	%edx, %edx
	addl	%ebp, %esi
	sall	$3, %ecx
	jmp	.L1186
	.p2align 4,,10
	.p2align 3
.L1191:
	movzbl	(%esi,%edx), %eax
	addl	$24, %ecx
	movb	%al, (%edi,%edx)
	addl	$1, %edx
	cmpl	%edx, 8(%ebx)
	jle	.L1183
.L1186:
	movl	68(%ebx), %eax
	testb	$1, (%eax,%ecx)
	jne	.L1191
	addl	$1, %edx
	addl	$24, %ecx
	cmpl	%edx, 8(%ebx)
	movl	$1, (%esp)
	jg	.L1186
.L1183:
	movl	(%esp), %eax
	addl	$4, %esp
	.cfi_remember_state
	.cfi_def_cfa_offset 20
	popl	%ebx
	.cfi_restore 3
	.cfi_def_cfa_offset 16
	popl	%esi
	.cfi_restore 6
	.cfi_def_cfa_offset 12
	popl	%edi
	.cfi_restore 7
	.cfi_def_cfa_offset 8
	popl	%ebp
	.cfi_restore 5
	.cfi_def_cfa_offset 4
	ret
	.p2align 4,,10
	.p2align 3
.L1187:
	.cfi_restore_state
	movl	$0, (%esp)
	movl	(%esp), %eax
	addl	$4, %esp
	.cfi_def_cfa_offset 20
	popl	%ebx
	.cfi_restore 3
	.cfi_def_cfa_offset 16
	popl	%esi
	.cfi_restore 6
	.cfi_def_cfa_offset 12
	popl	%edi
	.cfi_restore 7
	.cfi_def_cfa_offset 8
	popl	%ebp
	.cfi_restore 5
	.cfi_def_cfa_offset 4
	ret
	.cfi_endproc
.LFE179:
	.size	__asl_stren_correct_frc, .-__asl_stren_correct_frc
	.p2align 4,,15
	.globl	__asl_correct_frc
	.type	__asl_correct_frc, @function
__asl_correct_frc:
.LFB180:
	.cfi_startproc
	pushl	%ebp
	.cfi_def_cfa_offset 8
	.cfi_offset 5, -8
	pushl	%edi
	.cfi_def_cfa_offset 12
	.cfi_offset 7, -12
	pushl	%esi
	.cfi_def_cfa_offset 16
	.cfi_offset 6, -16
	pushl	%ebx
	.cfi_def_cfa_offset 20
	.cfi_offset 3, -20
	call	__x86.get_pc_thunk.bx
	addl	$_GLOBAL_OFFSET_TABLE_, %ebx
	subl	$28, %esp
	.cfi_def_cfa_offset 48
	movl	__xspi@GOT(%ebx), %ecx
	movl	__maxxnest@GOT(%ebx), %esi
	movl	52(%esp), %edi
	movl	(%ecx), %eax
	movl	%ecx, 8(%esp)
	movl	%esi, 12(%esp)
	addl	$1, %eax
	cmpl	(%esi), %eax
	movl	%eax, (%ecx)
	jge	.L1206
.L1193:
	movl	__xstk@GOT(%ebx), %ebp
	movl	0(%ebp), %edx
	movl	(%edx,%eax,4), %esi
	movl	8(%edi), %edx
	leal	31(%edx), %eax
	sarl	$5, %eax
	cmpl	4(%esi), %eax
	jg	.L1207
.L1194:
	movl	8(%esi), %ecx
	subl	$8, %esp
	.cfi_def_cfa_offset 56
	movl	%edx, (%esi)
	leal	(%ecx,%eax,4), %eax
	movl	%eax, 12(%esi)
	pushl	%edi
	.cfi_def_cfa_offset 60
	pushl	%ecx
	.cfi_def_cfa_offset 64
	call	__bld_forcedbits_mask@PLT
	movl	8(%edi), %eax
	addl	$12, %esp
	.cfi_def_cfa_offset 52
	addl	$31, %eax
	sarl	$5, %eax
	sall	$2, %eax
	pushl	%eax
	.cfi_def_cfa_offset 56
	pushl	$0
	.cfi_def_cfa_offset 60
	pushl	12(%esi)
	.cfi_def_cfa_offset 64
	call	memset@PLT
	popl	%edx
	.cfi_def_cfa_offset 60
	popl	%ecx
	.cfi_def_cfa_offset 56
	pushl	8(%edi)
	.cfi_def_cfa_offset 60
	pushl	8(%esi)
	.cfi_def_cfa_offset 64
	call	__vval_is1@PLT
	addl	$16, %esp
	.cfi_def_cfa_offset 48
	testl	%eax, %eax
	jne	.L1208
	movl	8(%edi), %eax
	movl	8(%esi), %edx
	cmpl	$32, %eax
	jg	.L1197
	movl	(%edx), %eax
	testl	%eax, %eax
	sete	%dl
.L1198:
	movl	8(%esp), %ecx
	testb	%dl, %dl
	movl	(%ecx), %eax
	jne	.L1209
	movl	8(%esp), %edx
	addl	$1, %eax
	movl	%eax, (%edx)
	movl	12(%esp), %edx
	cmpl	(%edx), %eax
	jge	.L1210
.L1200:
	movl	0(%ebp), %edx
	movl	(%edx,%eax,4), %ebp
	movl	8(%edi), %edx
	leal	31(%edx), %eax
	sarl	$5, %eax
	cmpl	4(%ebp), %eax
	jg	.L1211
.L1201:
	movl	8(%ebp), %ecx
	subl	$8, %esp
	.cfi_def_cfa_offset 56
	movl	%edx, 0(%ebp)
	leal	(%ecx,%eax,4), %eax
	movl	%eax, 12(%ebp)
	pushl	%edi
	.cfi_def_cfa_offset 60
	pushl	%ebp
	.cfi_def_cfa_offset 64
	call	__ld_wire_val_xstk@PLT
	movl	8(%edi), %eax
	addl	$16, %esp
	.cfi_def_cfa_offset 48
	addl	$31, %eax
	sarl	$5, %eax
	testl	%eax, %eax
	leal	0(,%eax,4), %ebx
	jle	.L1202
	movl	48(%esp), %eax
	movl	8(%esi), %edx
	movl	12(%ebp), %ecx
	movl	8(%ebp), %esi
	leal	(%eax,%ebx), %ebp
	.p2align 4,,10
	.p2align 3
.L1203:
	movl	(%edx), %edi
	addl	$4, %edx
	notl	%edi
	andl	%edi, (%eax)
	movl	-4(%edx), %edi
	notl	%edi
	andl	%edi, (%eax,%ebx)
	movl	-4(%edx), %edi
	andl	%edi, (%esi)
	addl	$4, %esi
	movl	-4(%edx), %edi
	andl	%edi, (%ecx)
	addl	$4, %ecx
	movl	-4(%esi), %edi
	orl	%edi, (%eax)
	movl	-4(%ecx), %edi
	orl	%edi, (%eax,%ebx)
	addl	$4, %eax
	cmpl	%eax, %ebp
	jne	.L1203
.L1202:
	movl	8(%esp), %eax
	subl	$2, (%eax)
	addl	$28, %esp
	.cfi_remember_state
	.cfi_def_cfa_offset 20
	movl	$1, %eax
	popl	%ebx
	.cfi_restore 3
	.cfi_def_cfa_offset 16
	popl	%esi
	.cfi_restore 6
	.cfi_def_cfa_offset 12
	popl	%edi
	.cfi_restore 7
	.cfi_def_cfa_offset 8
	popl	%ebp
	.cfi_restore 5
	.cfi_def_cfa_offset 4
	ret
	.p2align 4,,10
	.p2align 3
.L1208:
	.cfi_restore_state
	movl	8(%esp), %eax
	subl	$1, (%eax)
	addl	$28, %esp
	.cfi_remember_state
	.cfi_def_cfa_offset 20
	xorl	%eax, %eax
	popl	%ebx
	.cfi_restore 3
	.cfi_def_cfa_offset 16
	popl	%esi
	.cfi_restore 6
	.cfi_def_cfa_offset 12
	popl	%edi
	.cfi_restore 7
	.cfi_def_cfa_offset 8
	popl	%ebp
	.cfi_restore 5
	.cfi_def_cfa_offset 4
	ret
	.p2align 4,,10
	.p2align 3
.L1207:
	.cfi_restore_state
	subl	$8, %esp
	.cfi_def_cfa_offset 56
	pushl	%eax
	.cfi_def_cfa_offset 60
	pushl	%esi
	.cfi_def_cfa_offset 64
	call	__chg_xstk_width@PLT
	movl	8(%edi), %edx
	addl	$16, %esp
	.cfi_def_cfa_offset 48
	leal	31(%edx), %eax
	sarl	$5, %eax
	jmp	.L1194
	.p2align 4,,10
	.p2align 3
.L1206:
	call	__grow_xstk@PLT
	movl	8(%esp), %eax
	movl	(%eax), %eax
	jmp	.L1193
	.p2align 4,,10
	.p2align 3
.L1209:
	subl	$1, %eax
	movl	%eax, (%ecx)
	addl	$28, %esp
	.cfi_remember_state
	.cfi_def_cfa_offset 20
	movl	$1, %eax
	popl	%ebx
	.cfi_restore 3
	.cfi_def_cfa_offset 16
	popl	%esi
	.cfi_restore 6
	.cfi_def_cfa_offset 12
	popl	%edi
	.cfi_restore 7
	.cfi_def_cfa_offset 8
	popl	%ebp
	.cfi_restore 5
	.cfi_def_cfa_offset 4
	ret
	.p2align 4,,10
	.p2align 3
.L1197:
	.cfi_restore_state
	subl	$8, %esp
	.cfi_def_cfa_offset 56
	pushl	%eax
	.cfi_def_cfa_offset 60
	pushl	%edx
	.cfi_def_cfa_offset 64
	call	__wide_vval_is0@PLT
	addl	$16, %esp
	.cfi_def_cfa_offset 48
	testl	%eax, %eax
	setne	%dl
	jmp	.L1198
	.p2align 4,,10
	.p2align 3
.L1211:
	subl	$8, %esp
	.cfi_def_cfa_offset 56
	pushl	%eax
	.cfi_def_cfa_offset 60
	pushl	%ebp
	.cfi_def_cfa_offset 64
	call	__chg_xstk_width@PLT
	movl	8(%edi), %edx
	addl	$16, %esp
	.cfi_def_cfa_offset 48
	leal	31(%edx), %eax
	sarl	$5, %eax
	jmp	.L1201
	.p2align 4,,10
	.p2align 3
.L1210:
	call	__grow_xstk@PLT
	movl	8(%esp), %eax
	movl	(%eax), %eax
	jmp	.L1200
	.cfi_endproc
.LFE180:
	.size	__asl_correct_frc, .-__asl_correct_frc
	.p2align 4,,15
	.globl	__asl_psel_correct_frc
	.type	__asl_psel_correct_frc, @function
__asl_psel_correct_frc:
.LFB181:
	.cfi_startproc
	pushl	%ebp
	.cfi_def_cfa_offset 8
	.cfi_offset 5, -8
	pushl	%edi
	.cfi_def_cfa_offset 12
	.cfi_offset 7, -12
	pushl	%esi
	.cfi_def_cfa_offset 16
	.cfi_offset 6, -16
	pushl	%ebx
	.cfi_def_cfa_offset 20
	.cfi_offset 3, -20
	call	__x86.get_pc_thunk.bx
	addl	$_GLOBAL_OFFSET_TABLE_, %ebx
	subl	$44, %esp
	.cfi_def_cfa_offset 64
	movl	72(%esp), %edi
	subl	76(%esp), %edi
	movl	__xspi@GOT(%ebx), %ebp
	movl	__maxxnest@GOT(%ebx), %ecx
	leal	1(%edi), %eax
	movl	%ecx, 24(%esp)
	movl	%eax, 8(%esp)
	movl	68(%esp), %eax
	movl	8(%eax), %eax
	movl	%eax, 28(%esp)
	movl	0(%ebp), %eax
	addl	$1, %eax
	cmpl	(%ecx), %eax
	movl	%eax, 0(%ebp)
	jge	.L1228
.L1213:
	movl	__xstk@GOT(%ebx), %ecx
	addl	$32, %edi
	sarl	$5, %edi
	movl	%edi, 12(%esp)
	movl	(%ecx), %edx
	movl	%ecx, 20(%esp)
	movl	(%edx,%eax,4), %esi
	cmpl	4(%esi), %edi
	jg	.L1229
.L1214:
	movl	12(%esp), %edi
	movl	8(%esi), %edx
	addl	$1, %eax
	leal	0(,%edi,4), %ecx
	movl	8(%esp), %edi
	addl	%ecx, %edx
	movl	%ecx, 16(%esp)
	movl	24(%esp), %ecx
	movl	%edi, (%esi)
	movl	%edx, 12(%esi)
	movl	%eax, 0(%ebp)
	cmpl	(%ecx), %eax
	jge	.L1230
.L1215:
	movl	20(%esp), %edi
	movl	(%edi), %edx
	movl	(%edx,%eax,4), %edi
	movl	68(%esp), %eax
	movl	8(%eax), %edx
	leal	31(%edx), %eax
	sarl	$5, %eax
	cmpl	4(%edi), %eax
	jg	.L1231
.L1216:
	movl	8(%edi), %ecx
	subl	$8, %esp
	.cfi_def_cfa_offset 72
	movl	%edx, (%edi)
	leal	(%ecx,%eax,4), %eax
	movl	%eax, 12(%edi)
	pushl	76(%esp)
	.cfi_def_cfa_offset 76
	pushl	%ecx
	.cfi_def_cfa_offset 80
	call	__bld_forcedbits_mask@PLT
	pushl	24(%esp)
	.cfi_def_cfa_offset 84
	pushl	96(%esp)
	.cfi_def_cfa_offset 88
	pushl	8(%edi)
	.cfi_def_cfa_offset 92
	pushl	8(%esi)
	.cfi_def_cfa_offset 96
	call	__rhspsel@PLT
	addl	$24, %esp
	.cfi_def_cfa_offset 72
	subl	$1, 0(%ebp)
	pushl	16(%esp)
	.cfi_def_cfa_offset 76
	pushl	8(%esi)
	.cfi_def_cfa_offset 80
	call	__vval_is1@PLT
	addl	$16, %esp
	.cfi_def_cfa_offset 64
	testl	%eax, %eax
	jne	.L1232
	cmpl	$32, 8(%esp)
	movl	8(%esi), %eax
	jg	.L1219
	movl	(%eax), %edx
	testl	%edx, %edx
	sete	%dl
.L1220:
	testb	%dl, %dl
	movl	0(%ebp), %eax
	jne	.L1233
	movl	24(%esp), %edi
	addl	$1, %eax
	movl	%eax, 0(%ebp)
	cmpl	(%edi), %eax
	jge	.L1234
.L1222:
	movl	20(%esp), %edi
	movl	12(%esp), %ecx
	movl	(%edi), %edx
	movl	(%edx,%eax,4), %eax
	cmpl	4(%eax), %ecx
	jg	.L1235
.L1223:
	movl	16(%esp), %edi
	movl	8(%eax), %ecx
	subl	$12, %esp
	.cfi_def_cfa_offset 76
	leal	(%ecx,%edi), %edx
	movl	20(%esp), %edi
	movl	%eax, 20(%esp)
	movl	%edx, 12(%eax)
	movl	%edi, (%eax)
	pushl	88(%esp)
	.cfi_def_cfa_offset 80
	pushl	88(%esp)
	.cfi_def_cfa_offset 84
	pushl	88(%esp)
	.cfi_def_cfa_offset 88
	pushl	%edx
	.cfi_def_cfa_offset 92
	pushl	%ecx
	.cfi_def_cfa_offset 96
	call	__ld_psel@PLT
	addl	$32, %esp
	.cfi_def_cfa_offset 64
	movl	12(%esp), %eax
	testl	%eax, %eax
	jle	.L1224
	movl	8(%esp), %eax
	movl	8(%esi), %ecx
	movl	64(%esp), %ebx
	movl	8(%eax), %edi
	movl	12(%eax), %esi
	movl	28(%esp), %eax
	movl	%edi, 8(%esp)
	movl	%esi, 20(%esp)
	addl	$31, %eax
	sarl	$5, %eax
	sall	$3, %eax
	movl	%eax, 12(%esp)
	xorl	%eax, %eax
	.p2align 4,,10
	.p2align 3
.L1225:
	movl	(%ecx,%eax), %edx
	movl	12(%esp), %esi
	movl	8(%esp), %edi
	notl	%edx
	andl	%edx, (%ebx,%eax)
	leal	(%esi,%eax), %edx
	movl	(%ecx,%eax), %esi
	addl	%ebx, %edx
	notl	%esi
	andl	%esi, (%edx)
	movl	(%ecx,%eax), %esi
	andl	%esi, (%edi,%eax)
	movl	20(%esp), %edi
	movl	(%ecx,%eax), %esi
	andl	%esi, (%edi,%eax)
	movl	8(%esp), %esi
	movl	(%esi,%eax), %esi
	orl	%esi, (%ebx,%eax)
	movl	(%edi,%eax), %esi
	addl	$4, %eax
	orl	%esi, (%edx)
	cmpl	%eax, 16(%esp)
	jne	.L1225
.L1224:
	subl	$2, 0(%ebp)
	addl	$44, %esp
	.cfi_remember_state
	.cfi_def_cfa_offset 20
	movl	$1, %eax
	popl	%ebx
	.cfi_restore 3
	.cfi_def_cfa_offset 16
	popl	%esi
	.cfi_restore 6
	.cfi_def_cfa_offset 12
	popl	%edi
	.cfi_restore 7
	.cfi_def_cfa_offset 8
	popl	%ebp
	.cfi_restore 5
	.cfi_def_cfa_offset 4
	ret
	.p2align 4,,10
	.p2align 3
.L1232:
	.cfi_restore_state
	subl	$1, 0(%ebp)
	addl	$44, %esp
	.cfi_remember_state
	.cfi_def_cfa_offset 20
	xorl	%eax, %eax
	popl	%ebx
	.cfi_restore 3
	.cfi_def_cfa_offset 16
	popl	%esi
	.cfi_restore 6
	.cfi_def_cfa_offset 12
	popl	%edi
	.cfi_restore 7
	.cfi_def_cfa_offset 8
	popl	%ebp
	.cfi_restore 5
	.cfi_def_cfa_offset 4
	ret
	.p2align 4,,10
	.p2align 3
.L1231:
	.cfi_restore_state
	subl	$8, %esp
	.cfi_def_cfa_offset 72
	pushl	%eax
	.cfi_def_cfa_offset 76
	pushl	%edi
	.cfi_def_cfa_offset 80
	call	__chg_xstk_width@PLT
	movl	84(%esp), %eax
	addl	$16, %esp
	.cfi_def_cfa_offset 64
	movl	8(%eax), %edx
	leal	31(%edx), %eax
	sarl	$5, %eax
	jmp	.L1216
	.p2align 4,,10
	.p2align 3
.L1228:
	call	__grow_xstk@PLT
	movl	0(%ebp), %eax
	jmp	.L1213
	.p2align 4,,10
	.p2align 3
.L1230:
	call	__grow_xstk@PLT
	movl	0(%ebp), %eax
	jmp	.L1215
	.p2align 4,,10
	.p2align 3
.L1229:
	subl	$8, %esp
	.cfi_def_cfa_offset 72
	pushl	20(%esp)
	.cfi_def_cfa_offset 76
	pushl	%esi
	.cfi_def_cfa_offset 80
	call	__chg_xstk_width@PLT
	movl	0(%ebp), %eax
	addl	$16, %esp
	.cfi_def_cfa_offset 64
	jmp	.L1214
	.p2align 4,,10
	.p2align 3
.L1233:
	subl	$1, %eax
	movl	%eax, 0(%ebp)
	addl	$44, %esp
	.cfi_remember_state
	.cfi_def_cfa_offset 20
	movl	$1, %eax
	popl	%ebx
	.cfi_restore 3
	.cfi_def_cfa_offset 16
	popl	%esi
	.cfi_restore 6
	.cfi_def_cfa_offset 12
	popl	%edi
	.cfi_restore 7
	.cfi_def_cfa_offset 8
	popl	%ebp
	.cfi_restore 5
	.cfi_def_cfa_offset 4
	ret
	.p2align 4,,10
	.p2align 3
.L1219:
	.cfi_restore_state
	subl	$8, %esp
	.cfi_def_cfa_offset 72
	pushl	16(%esp)
	.cfi_def_cfa_offset 76
	pushl	%eax
	.cfi_def_cfa_offset 80
	call	__wide_vval_is0@PLT
	addl	$16, %esp
	.cfi_def_cfa_offset 64
	testl	%eax, %eax
	setne	%dl
	jmp	.L1220
	.p2align 4,,10
	.p2align 3
.L1235:
	subl	$8, %esp
	.cfi_def_cfa_offset 72
	pushl	20(%esp)
	.cfi_def_cfa_offset 76
	pushl	%eax
	.cfi_def_cfa_offset 80
	movl	%eax, 36(%esp)
	call	__chg_xstk_width@PLT
	addl	$16, %esp
	.cfi_def_cfa_offset 64
	movl	20(%esp), %eax
	jmp	.L1223
	.p2align 4,,10
	.p2align 3
.L1234:
	call	__grow_xstk@PLT
	movl	0(%ebp), %eax
	jmp	.L1222
	.cfi_endproc
.LFE181:
	.size	__asl_psel_correct_frc, .-__asl_psel_correct_frc
	.p2align 4,,15
	.globl	__asl_stren_psel_correct_frc
	.type	__asl_stren_psel_correct_frc, @function
__asl_stren_psel_correct_frc:
.LFB182:
	.cfi_startproc
	pushl	%ebp
	.cfi_def_cfa_offset 8
	.cfi_offset 5, -8
	pushl	%edi
	.cfi_def_cfa_offset 12
	.cfi_offset 7, -12
	pushl	%esi
	.cfi_def_cfa_offset 16
	.cfi_offset 6, -16
	pushl	%ebx
	.cfi_def_cfa_offset 20
	.cfi_offset 3, -20
	call	__x86.get_pc_thunk.ax
	addl	$_GLOBAL_OFFSET_TABLE_, %eax
	subl	$4, %esp
	.cfi_def_cfa_offset 24
	movl	28(%esp), %esi
	movl	__idp@GOT(%eax), %eax
	movl	32(%esp), %ebx
	movl	(%eax), %edi
	movl	24(%esi), %eax
	leal	0(,%eax,4), %ebp
	movl	8(%esi), %eax
	imull	(%edi), %eax
	subl	36(%esp), %ebx
	js	.L1240
	addl	36(%esp), %eax
	addl	36(%esp), %ebp
	addl	$1, %ebx
	xorl	%edx, %edx
	leal	(%eax,%eax,2), %ecx
	xorl	%eax, %eax
	addl	%ebp, %edi
	movl	%eax, (%esp)
	sall	$3, %ecx
	jmp	.L1239
	.p2align 4,,10
	.p2align 3
.L1245:
	movzbl	(%edi,%edx), %eax
	movl	24(%esp), %ebp
	addl	$24, %ecx
	addl	36(%esp), %ebp
	movb	%al, 0(%ebp,%edx)
	addl	$1, %edx
	cmpl	%edx, %ebx
	je	.L1244
.L1239:
	movl	68(%esi), %ebp
	testb	$1, 0(%ebp,%ecx)
	jne	.L1245
	addl	$1, %edx
	addl	$24, %ecx
	movl	$1, (%esp)
	cmpl	%edx, %ebx
	jne	.L1239
.L1244:
	movl	(%esp), %eax
	addl	$4, %esp
	.cfi_remember_state
	.cfi_def_cfa_offset 20
	popl	%ebx
	.cfi_restore 3
	.cfi_def_cfa_offset 16
	popl	%esi
	.cfi_restore 6
	.cfi_def_cfa_offset 12
	popl	%edi
	.cfi_restore 7
	.cfi_def_cfa_offset 8
	popl	%ebp
	.cfi_restore 5
	.cfi_def_cfa_offset 4
	ret
	.p2align 4,,10
	.p2align 3
.L1240:
	.cfi_restore_state
	addl	$4, %esp
	.cfi_def_cfa_offset 20
	xorl	%eax, %eax
	popl	%ebx
	.cfi_restore 3
	.cfi_def_cfa_offset 16
	popl	%esi
	.cfi_restore 6
	.cfi_def_cfa_offset 12
	popl	%edi
	.cfi_restore 7
	.cfi_def_cfa_offset 8
	popl	%ebp
	.cfi_restore 5
	.cfi_def_cfa_offset 4
	ret
	.cfi_endproc
.LFE182:
	.size	__asl_stren_psel_correct_frc, .-__asl_stren_psel_correct_frc
	.p2align 4,,15
	.globl	__asl_assign_qcaf_regform_concat
	.type	__asl_assign_qcaf_regform_concat, @function
__asl_assign_qcaf_regform_concat:
.LFB212:
	.cfi_startproc
	pushl	%ebx
	.cfi_def_cfa_offset 8
	.cfi_offset 3, -8
	call	__x86.get_pc_thunk.bx
	addl	$_GLOBAL_OFFSET_TABLE_, %ebx
	subl	$16, %esp
	.cfi_def_cfa_offset 24
	pushl	$0
	.cfi_def_cfa_offset 28
	pushl	28(%esp)
	.cfi_def_cfa_offset 32
	call	__exec_qc_assign@PLT
	addl	$24, %esp
	.cfi_def_cfa_offset 8
